 monitor

 Timestamp is 47ccf9e6 (Tue Mar 04 15:27:34 2008)

 Preferred load address is 10000000

 Start         Length     Name                   Class
 0001:00000000 00059372H .text                   CODE
 0001:00059380 00000000H .text$AFX_COL1          CODE
 0001:00059380 00003ab5H .text$x                 CODE
 0001:0005ce40 00000662H .text$yc                CODE
 0001:0005d4b0 00000340H .text$yd                CODE
 0002:00000000 00000524H .idata$5                DATA
 0002:00000528 0000a1f0H .rdata                  DATA
 0002:0000a718 00000104H .rdata$r                DATA
 0002:0000a820 0000020cH .rdata$sxdata           DATA
 0002:0000aa2c 00000004H .rtc$IAA                DATA
 0002:0000aa30 00000004H .rtc$IZZ                DATA
 0002:0000aa34 00000004H .rtc$TAA                DATA
 0002:0000aa38 00000004H .rtc$TZZ                DATA
 0002:0000aa3c 00003870H .xdata$x                DATA
 0002:0000e2ac 00000000H ATL$__a                 DATA
 0002:0000e2ac 00000000H ATL$__z                 DATA
 0002:0000e2ac 000000f0H .idata$2                DATA
 0002:0000e39c 00000014H .idata$3                DATA
 0002:0000e3b0 00000524H .idata$4                DATA
 0002:0000e8d4 00000df0H .idata$6                DATA
 0002:0000f6d0 00000619H .edata                  DATA
 0003:00000000 00000004H .CRT$XCA                DATA
 0003:00000004 00000004H .CRT$XCAA               DATA
 0003:00000008 00000008H .CRT$XCL                DATA
 0003:00000010 000000c8H .CRT$XCU                DATA
 0003:000000d8 00000004H .CRT$XCZ                DATA
 0003:000000dc 00000004H .CRT$XIA                DATA
 0003:000000e0 00000004H .CRT$XIZ                DATA
 0003:000000f0 0006ee70H .data                   DATA
 0003:0006ef60 000fb8c0H .bss                    DATA
 0004:00000000 00000058H .rsrc$01                DATA
 0004:00000060 000002e8H .rsrc$02                DATA

  Address         Publics by Value              Rva+Base     Lib:Object

 0000:00000000       __except_list              00000000     <absolute>
 0000:00000083       ___safe_se_handler_count   00000083     <absolute>
 0000:00009876       __ldused                   00009876     <absolute>
 0000:00009876       __fltused                  00009876     <absolute>
 0000:00000000       ___ImageBase               10000000     <linker-defined>
 0001:00000000       ?_AtlGetThreadACPFake@ATL@@YGIXZ 10001000 f i AddrTable.obj
 0001:00000080       ?_AtlGetThreadACPReal@ATL@@YGIXZ 10001080 f i AddrTable.obj
 0001:00000090       ?_AtlGetThreadACPThunk@ATL@@YGIXZ 10001090 f i AddrTable.obj
 0001:00000100       ??3CObject@@SGXPAX@Z       10001100 f i AddrTable.obj
 0001:00000110       ?Serialize@CObject@@UAEXAAVCArchive@@@Z 10001110 f i AddrTable.obj
 0001:00000110       ?Dump@CObject@@UBEXAAVCDumpContext@@@Z 10001110 f i AddrTable.obj
 0001:00000120       ?Format@COleDateTime@ATL@@QBE?AV?$CStringT@DV?$StrTraitMFC_DLL@DV?$ChTraitsCRT@D@ATL@@@@@2@PBD@Z 10001120 f i ado.obj
 0001:000002c0       ??HATL@@YA?AV?$CStringT@DV?$StrTraitMFC_DLL@DV?$ChTraitsCRT@D@ATL@@@@@0@ABV10@0@Z 100012c0 f i ado.obj
 0001:00000350       ?GetAsSystemTime@CTime@ATL@@QBE_NAAU_SYSTEMTIME@@@Z 10001350 f i AIXErrpt.obj
 0001:000003b0       ??4COleDateTime@ATL@@QAEAAV01@AB_J@Z 100013b0 f i AIXErrpt.obj
 0001:00000410       ?convert_date@@YAHPADHHHH0@Z 10001410 f   AIXErrpt.obj
 0001:00000590       ?GetConfirms@@YAHV?$CStringT@DV?$StrTraitMFC_DLL@DV?$ChTraitsCRT@D@ATL@@@@@ATL@@@Z 10001590 f   AIXErrpt.obj
 0001:000006c0       ?AIXERRPT_TEL_VALUE@@YA_NPADH000H000000H000@Z 100016c0 f   AIXErrpt.obj
 0001:00000f50       ?AIXERRPT_SSH_VALUE@@YAHPADH000H0000@Z 10001f50 f   AIXErrpt.obj
 0001:00001620       ?APACHE_MONITOR@@YAHPADH000H0000@Z 10002620 f   Apache.obj
 0001:00001920       ?APACHE_2_0_34_MONITOR@@YAHPADH000H0000@Z 10002920 f   Apache.obj
 0001:00001b50       ?BANDWIDTH_MONITOR@@YAHPADH0HHH00@Z 10002b50 f   Bandwidth.obj
 0001:00001f20       ??0CBase64@@QAE@XZ         10002f20 f   Base64.obj
 0001:00001f40       ??1CBase64@@UAE@XZ         10002f40 f   Base64.obj
 0001:00001f50       ?read_bits@CBase64@@IAEIHPAHAAH@Z 10002f50 f   Base64.obj
 0001:00001fe0       ?write_bits@CBase64@@IAEXIHPADAAH@Z 10002fe0 f   Base64.obj
 0001:00002040       ??_GCBase64@@UAEPAXI@Z     10003040 f i Base64.obj
 0001:00002040       ??_ECBase64@@UAEPAXI@Z     10003040 f i Base64.obj
 0001:00002060       ?Encode@CBase64@@UAE?AV?$CStringT@DV?$StrTraitMFC_DLL@DV?$ChTraitsCRT@D@ATL@@@@@ATL@@PBDH@Z 10003060 f   Base64.obj
 0001:00002190       ?Decode@CBase64@@UAEHPBDPAD@Z 10003190 f   Base64.obj
 0001:00002310       ?CHECKPOINT_MONITOR@@YAHPADH0V?$CStringT@DV?$StrTraitMFC_DLL@DV?$ChTraitsCRT@D@ATL@@@@@ATL@@HH00@Z 10003310 f   CheckPoint.obj
 0001:00002810       ?CISCOCPU_MONITOR@@YAHPADHV?$CStringT@DV?$StrTraitMFC_DLL@DV?$ChTraitsCRT@D@ATL@@@@@ATL@@0HH00@Z 10003810 f   CiscoCPU.obj
 0001:00002d60       ?HUAWEISWITCH_CPU@@YAHPADHV?$CStringT@DV?$StrTraitMFC_DLL@DV?$ChTraitsCRT@D@ATL@@@@@ATL@@0HH010@Z 10003d60 f   CiscoCPU.obj
 0001:000031a0       ?HUAWEICPU_MONITOR@@YAHPADHV?$CStringT@DV?$StrTraitMFC_DLL@DV?$ChTraitsCRT@D@ATL@@@@@ATL@@0HH00@Z 100041a0 f   CiscoCPU.obj
 0001:00003620       ?cisco_connect@@YAHIPAD00PAUst_gd@@@Z 10004620 f   CiscoLog.obj
 0001:000038e0       ?cisco_command@@YAHIPAD0PAUst_gd@@@Z 100048e0 f   CiscoLog.obj
 0001:00003b80       ?CISCOCONFIG_MONITOR62@@YAHPADH000000000H0000@Z 10004b80 f   CiscoLog.obj
 0001:00004250       ?GetStringFromLineNo@@YA?AV?$CStringT@DV?$StrTraitMFC_DLL@DV?$ChTraitsCRT@D@ATL@@@@@ATL@@V12@H@Z 10005250 f   Cluster.obj
 0001:00004380       ?GetColumnFromLine@@YA?AV?$CStringT@DV?$StrTraitMFC_DLL@DV?$ChTraitsCRT@D@ATL@@@@@ATL@@V12@H@Z 10005380 f   Cluster.obj
 0001:00004520       ?TELCLUSTER_MONITOR@@YAHPADH000H000000000@Z 10005520 f   Cluster.obj
 0001:00004cd0       ?SSHCLUSTER_MONITOR@@YAHPADH000000@Z 10005cd0 f   Cluster.obj
 0001:00005390       ?HTTPCLUSTER_MONITOR@@YAHPAD000H000000@Z 10006390 f   Cluster.obj
 0001:00005940       ?RLOGINCLUSTER_MONITOR@@YAHPADH000H00000000@Z 10006940 f   Cluster.obj
 0001:000060a0       ?CTRONSSRCPU_MONITOR@@YAHPADH0HH00@Z 100070a0 f   Ctron.obj
 0001:00006380       ?CtronEtherIndexs@@YAHPADH0HH0AAV?$CStringT@DV?$StrTraitMFC_DLL@DV?$ChTraitsCRT@D@ATL@@@@@ATL@@@Z 10007380 f   Ctron.obj
 0001:00006920       ?GetTickCount@CTime@ATL@@SG?AV12@XZ 10007920 f i Ctron.obj
 0001:00006940       ?CTRONETHERSTATUS_MONITOR@@YAHPADH0V?$CStringT@DV?$StrTraitMFC_DLL@DV?$ChTraitsCRT@D@ATL@@@@@ATL@@HHHH00@Z 10007940 f   Ctron.obj
 0001:00006f70       ?DB_MONITOR@@YAHPAD0HH0000000@Z 10007f70 f   DB.obj
 0001:000072c0       ?topacket@@YAHPAUDHCP_MESSAGE@@PAE@Z 100082c0 f   DHCP.obj
 0001:000073d0       ?tostruct@@YAHPAUDHCP_MESSAGE@@PAEH@Z 100083d0 f   DHCP.obj
 0001:00007510       ?GetMacAddress@@YAHPAE@Z   10008510 f   DHCP.obj
 0001:000075c0       ?DHCP_MONITOR@@YAHHPAD00@Z 100085c0 f   DHCP.obj
 0001:00007dc0       ?VerifyDNS@@YAHPAEHAAVCStringList@@@Z 10008dc0 f   DNS.obj
 0001:00007f50       ?DNS_MONITOR@@YAHPADH0AAVCStringList@@00@Z 10008f50 f   DNS.obj
 0001:00008380       ?DYNAMO_MONITOR@@YAHPADH0V?$CStringT@DV?$StrTraitMFC_DLL@DV?$ChTraitsCRT@D@ATL@@@@@ATL@@HH00@Z 10009380 f   Dynamo.obj
 0001:00008870       ?F5_MONITOR@@YAHPADH0V?$CStringT@DV?$StrTraitMFC_DLL@DV?$ChTraitsCRT@D@ATL@@@@@ATL@@HH00@Z 10009870 f   F5.obj
 0001:00008cb0       ?FOUNDRYCPUS_MONITOR@@YAHPADH000@Z 10009cb0 f   Foundry.obj
 0001:00008ee0       ?FOUNDRYCPU_MONITOR@@YAHPADH0V?$CStringT@DV?$StrTraitMFC_DLL@DV?$ChTraitsCRT@D@ATL@@@@@ATL@@HH00@Z 10009ee0 f   Foundry.obj
 0001:00009300       ?OpenDataChannel@@YAHPADHH0H000@Z 1000a300 f   FTP.obj
 0001:000095a0       ?QuitFromServer@@YAXXZ     1000a5a0 f   FTP.obj
 0001:000095e0       ?WaitVersionInfo@@YAHIH@Z  1000a5e0 f   FTP.obj
 0001:00009710       ?FTP_COMMAND@@YAHIV?$CStringT@DV?$StrTraitMFC_DLL@DV?$ChTraitsCRT@D@ATL@@@@@ATL@@AAV12@@Z 1000a710 f   FTP.obj
 0001:000098d0       ?EnterPassiveMode@@YAHXZ   1000a8d0 f   FTP.obj
 0001:00009a50       ?WriteString@@YAHIV?$CStringT@DV?$StrTraitMFC_DLL@DV?$ChTraitsCRT@D@ATL@@@@@ATL@@@Z 1000aa50 f   FTP.obj
 0001:00009a80       ?ReadString2@@YAHIPAD@Z    1000aa80 f   FTP.obj
 0001:00009b90       ?TFTP_MONITOR@@YAHPADH0H00@Z 1000ab90 f   FTP.obj
 0001:00009f90       ?OpenControlChannel@@YAHPADH00H0H0H000@Z 1000af90 f   FTP.obj
 0001:0000a6e0       ?FTP_MONITOR@@YAHPADH000HH0H00000@Z 1000b6e0 f   FTP.obj
 0001:0000a850       ?FuncGetInstallPath@@YA?AV?$CStringT@DV?$StrTraitMFC_DLL@DV?$ChTraitsCRT@D@ATL@@@@@ATL@@XZ 1000b850 f   funcGeneral.obj
 0001:0000a8f0       ?FuncGetInstallRootSCPath@@YA?AV?$CStringT@DV?$StrTraitMFC_DLL@DV?$ChTraitsCRT@D@ATL@@@@@ATL@@XZ 1000b8f0 f   funcGeneral.obj
 0001:0000a910       ?FuncGetInstallRootPath@@YA?AV?$CStringT@DV?$StrTraitMFC_DLL@DV?$ChTraitsCRT@D@ATL@@@@@ATL@@XZ 1000b910 f   funcGeneral.obj
 0001:0000ab00       ?WSA_Init@@YAHXZ           1000bb00 f   funcGeneral.obj
 0001:0000ab80       ?WSA_Free@@YAXXZ           1000bb80 f   funcGeneral.obj
 0001:0000ab90       ?DFN_GetPrivateProfileString@@YAKPBD00PADK0@Z 1000bb90 f   funcGeneral.obj
 0001:0000ada0       ?DFN_GetPrivateProfileInt@@YAHPBD0H0@Z 1000bda0 f   funcGeneral.obj
 0001:0000ae50       ?DFN_WritePrivateProfileString@@YAHPBD000@Z 1000be50 f   funcGeneral.obj
 0001:0000b080       ?MakeStringListByChar@@YA_NAAVCStringList@@PBD@Z 1000c080 f   funcGeneral.obj
 0001:0000b0c0       ?MakeCharByString@@YA_NPADAAHV?$CStringT@DV?$StrTraitMFC_DLL@DV?$ChTraitsCRT@D@ATL@@@@@ATL@@@Z 1000c0c0 f   funcGeneral.obj
 0001:0000b160       ?GetSEIP@@YA?AV?$basic_string@DU?$char_traits@D@std@@V?$allocator@D@2@@std@@XZ 1000c160 f   funcGeneral.obj
 0001:0000b2c0       ?GetResourceValue@@YA?AV?$basic_string@DU?$char_traits@D@std@@V?$allocator@D@2@@std@@V12@@Z 1000c2c0 f   funcGeneral.obj
 0001:0000b400       ?FuncGetStringFromIDS@@YA?AV?$CStringT@DV?$StrTraitMFC_DLL@DV?$ChTraitsCRT@D@ATL@@@@@ATL@@PBD@Z 1000c400 f   funcGeneral.obj
 0001:0000b500       ?FuncGetStringFromIDS@@YA?AV?$CStringT@DV?$StrTraitMFC_DLL@DV?$ChTraitsCRT@D@ATL@@@@@ATL@@PBD0@Z 1000c500 f   funcGeneral.obj
 0001:0000b600       ?DFNParser_GetPrivateProfileString@@YAKPBD00PADK0@Z 1000c600 f   funcGeneral.obj
 0001:0000b690       ?DFNParser_GetPrivateProfileInt@@YAHPBD0H0@Z 1000c690 f   funcGeneral.obj
 0001:0000b710       ?http_command@@YAHPAD0H000H000@Z 1000c710 f   HttpMonitor.obj
 0001:0000bda0       ?HttpMonitorValue@@YAHPAD000H000H000@Z 1000cda0 f   HttpMonitor.obj
 0001:0000bfb0       ?HttpUnixPerfMonitorValue@@YAHPAD000H00000@Z 1000cfb0 f   HttpMonitor.obj
 0001:0000c180       ??0CFileException@@QAE@HJPBD@Z 1000d180 f i IEEvents.obj
 0001:0000c1f0       ??1CFileException@@UAE@XZ  1000d1f0 f i IEEvents.obj
 0001:0000c200       ??_ECFileException@@UAEPAXI@Z 1000d200 f i IEEvents.obj
 0001:0000c200       ??_GCFileException@@UAEPAXI@Z 1000d200 f i IEEvents.obj
 0001:0000c220       ?cisco_GetInterfaces@@YAHPADH00AAV?$CStringT@DV?$StrTraitMFC_DLL@DV?$ChTraitsCRT@D@ATL@@@@@ATL@@@Z 1000d220 f   Interfaces.obj
 0001:0000c4c0       ?MallocInterfaceList@@YAHHPAPAUtagInterfaceInfo@@@Z 1000d4c0 f   Interfaces.obj
 0001:0000c540       ?GetInterfaces@@YAHPADH00AAV?$CStringT@DV?$StrTraitMFC_DLL@DV?$ChTraitsCRT@D@ATL@@@@@ATL@@@Z 1000d540 f   Interfaces.obj
 0001:0000cd10       ?IPLANET_MONITOR@@YAHPADH000H0000@Z 1000dd10 f   iPlanet.obj
 0001:0000d5c0       ?LDAP_MONITOR@@YAHPADH0000000@Z 1000e5c0 f   LDAP.obj
 0001:0000da00       ?GetCurrentTimeEx@TTime@svutil@@SA?AV12@XZ 1000ea00 f i LogFile.obj
 0001:0000da30       ?Format@TTime@svutil@@QBE?AV?$basic_string@DU?$char_traits@D@std@@V?$allocator@D@2@@std@@XZ 1000ea30 f i LogFile.obj
 0001:0000dac0       ??1sv_dyn@@QAE@XZ          1000eac0 f i LogFile.obj
 0001:0000dad0       ?GetDyn@@YAHV?$basic_string@DU?$char_traits@D@std@@V?$allocator@D@2@@std@@AAHAAV12@@Z 1000ead0 f   LogFile.obj
 0001:0000dc20       ?GetColumnFromLine@@YAHV?$CStringT@DV?$StrTraitMFC_DLL@DV?$ChTraitsCRT@D@ATL@@@@@ATL@@HAAJ@Z 1000ec20 f   LogFile.obj
 0001:0000de30       ?WriteLogData@@YAXPADPBD@Z 1000ee30 f   LogFile.obj
 0001:0000df20       ?WriteLogTime@@YAXPBD@Z    1000ef20 f   LogFile.obj
 0001:0000e060       ?ParserContent@@YAHPADAAJ1000@Z 1000f060 f   LogFile.obj
 0001:0000e2c0       ?TelLogFileSize@@YAHHPAD0AAJ@Z 1000f2c0 f   LogFile.obj
 0001:0000e440       ?SshLogFileSize@@YAHPADH00000AAJ@Z 1000f440 f   LogFile.obj
 0001:0000e5c0       ?TelLogFileExist@@YAHHPAD0@Z 1000f5c0 f   LogFile.obj
 0001:0000e730       ?SshLogFileExist@@YAHPADH00000@Z 1000f730 f   LogFile.obj
 0001:0000e8a0       ?LOGFILE_TEL_VALUE@@YAHPADH000H000000000HH00H0@Z 1000f8a0 f   LogFile.obj
 0001:0000efd0       ?LOGFILE_SSH_VALUE@@YAHPADH000000HH00H00@Z 1000ffd0 f   LogFile.obj
 0001:0000f510       ??0CMAPIProto@@QAE@XZ      10010510 f   MAPIProto.obj
 0001:0000f540       ?InitMAPI@CMAPIProto@@QAEHXZ 10010540 f   MAPIProto.obj
 0001:0000f600       ?MAPISendMail@CMAPIProto@@QAEHKKPAUMapiMessage@@KKPAD@Z 10010600 f   MAPIProto.obj
 0001:0000f800       ?MAPIResolveName@CMAPIProto@@QAEHKKPADKKPAPAUMapiRecipDesc@@0@Z 10010800 f   MAPIProto.obj
 0001:0000f960       ?MAPILogon@CMAPIProto@@QAEHKPAD0KKPAK0@Z 10010960 f   MAPIProto.obj
 0001:0000fa80       ?MAPIFreeBuffer@CMAPIProto@@QAEHPAXPAD@Z 10010a80 f   MAPIProto.obj
 0001:0000fac0       ?MAPIFindNext@CMAPIProto@@QAEHKKPAD0KK00@Z 10010ac0 f   MAPIProto.obj
 0001:0000fbf0       ?MAPIReadMail@CMAPIProto@@QAEHKKPADKKPAPAUMapiMessage@@0@Z 10010bf0 f   MAPIProto.obj
 0001:0000fd70       ??_ECMAPIProto@@UAEPAXI@Z  10010d70 f i MAPIProto.obj
 0001:0000fd70       ??_GCMAPIProto@@UAEPAXI@Z  10010d70 f i MAPIProto.obj
 0001:0000fda0       ?MD5_Block@@YAXPAUMD5_Core_State@@PAI@Z 10010da0 f   MD5.obj
 0001:00010790       ?MD5Update@@YAXPAUMD5Context@@PBEI@Z 10011790 f   MD5.obj
 0001:00010900       ?MD5Final@@YAXQAEPAUMD5Context@@@Z 10011900 f   MD5.obj
 0001:00010a30       ?MD5@@YAXQAEPBEH@Z         10011a30 f   MD5.obj
 0001:00010aa0       ??0CMIMECode@@QAE@XZ       10011aa0 f   MIMECode.obj
 0001:00010ab0       ??1CMIMECode@@UAE@XZ       10011ab0 f   MIMECode.obj
 0001:00010ac0       ??_GCMIMECode@@UAEPAXI@Z   10011ac0 f i MIMECode.obj
 0001:00010ac0       ??_ECMIMECode@@UAEPAXI@Z   10011ac0 f i MIMECode.obj
 0001:00010ae0       ?Init@CCriticalSection@@AAEHXZ 10011ae0 f i MIMEMessage.obj
 0001:00010b60       ??0CCriticalSection@@QAE@XZ 10011b60 f i MIMEMessage.obj
 0001:00010bc0       ?Unlock@CSyncObject@@UAEHJPAJ@Z 10011bc0 f i MIMEMessage.obj
 0001:00010bd0       ??1CCriticalSection@@UAE@XZ 10011bd0 f i MIMEMessage.obj
 0001:00010bf0       ?Lock@CCriticalSection@@QAEHXZ 10011bf0 f i MIMEMessage.obj
 0001:00010c60       ?Lock@CCriticalSection@@UAEHK@Z 10011c60 f i MIMEMessage.obj
 0001:00010c70       ?Unlock@CCriticalSection@@UAEHXZ 10011c70 f i MIMEMessage.obj
 0001:00010c80       ??_GCCriticalSection@@UAEPAXI@Z 10011c80 f i MIMEMessage.obj
 0001:00010c80       ??_ECCriticalSection@@UAEPAXI@Z 10011c80 f i MIMEMessage.obj
 0001:00010ca0       ??1?$CList@PAVCMIMEContentAgent@@PAV1@@@UAE@XZ 10011ca0 f i MIMEMessage.obj
 0001:00010ce0       ?Serialize@?$CList@PAVCMIMEContentAgent@@PAV1@@@UAEXAAVCArchive@@@Z 10011ce0 f i MIMEMessage.obj
 0001:00010dc0       ??$SerializeElements@PAVCMIMEContentAgent@@@@YGXAAVCArchive@@PAPAVCMIMEContentAgent@@H@Z 10011dc0 f i MIMEMessage.obj
 0001:00010e50       ??_G?$CList@PAVCMIMEContentAgent@@PAV1@@@UAEPAXI@Z 10011e50 f i MIMEMessage.obj
 0001:00010e50       ??_E?$CList@PAVCMIMEContentAgent@@PAV1@@@UAEPAXI@Z 10011e50 f i MIMEMessage.obj
 0001:00010e70       ??0CMIMETypeManager@CMIMEMessage@@QAE@XZ 10011e70 f   MIMEMessage.obj
 0001:00010eb0       ??1CMIMETypeManager@CMIMEMessage@@UAE@XZ 10011eb0 f   MIMEMessage.obj
 0001:00010f70       ??_GCMIMETypeManager@CMIMEMessage@@UAEPAXI@Z 10011f70 f i MIMEMessage.obj
 0001:00010f70       ??_ECMIMETypeManager@CMIMEMessage@@UAEPAXI@Z 10011f70 f i MIMEMessage.obj
 0001:00010f90       ??1AFX_MAINTAIN_STATE2@@QAE@XZ 10011f90 f i monitor.obj
 0001:00010fa0       ??1logic_error@std@@UAE@XZ 10011fa0 f i monitor.obj
 0001:00011000       ?what@logic_error@std@@UBEPBDXZ 10012000 f i monitor.obj
 0001:00011010       ??_Glogic_error@std@@UAEPAXI@Z 10012010 f i monitor.obj
 0001:00011010       ??_Elogic_error@std@@UAEPAXI@Z 10012010 f i monitor.obj
 0001:00011030       ??_Elength_error@std@@UAEPAXI@Z 10012030 f i monitor.obj
 0001:00011030       ??_Glength_error@std@@UAEPAXI@Z 10012030 f i monitor.obj
 0001:00011050       ??1length_error@std@@UAE@XZ 10012050 f i monitor.obj
 0001:00011060       ?GetMessageMap@CMonitorApp@@MBEPBUAFX_MSGMAP@@XZ 10012060 f   monitor.obj
 0001:00011070       ??0CMonitorApp@@QAE@XZ     10012070 f   monitor.obj
 0001:00011090       ??1CMonitorApp@@UAE@XZ     10012090 f i monitor.obj
 0001:000110a0       ?SSHAIXERRPT@@YAHAAVCStringList@@PAD@Z 100120a0 f   monitor.obj
 0001:00011700       _APACHE                    10012700 f   monitor.obj
 0001:00011d80       _APACHE_2_0_34             10012d80 f   monitor.obj
 0001:00012380       _BANDWIDTH                 10013380 f   monitor.obj
 0001:00012920       _CTRONSSRCPU               10013920 f   monitor.obj
 0001:00012e00       _CTRONETHERSTATUS          10013e00 f   monitor.obj
 0001:000134c0       _CTRONETHERINDEX           100144c0 f   monitor.obj
 0001:000139f0       _CHECKPOINT                100149f0 f   monitor.obj
 0001:00014020       ?TELCLUSTER@@YAHAAVCStringList@@PAD@Z 10015020 f   monitor.obj
 0001:00014a10       ?SSHCLUSTER@@YAHAAVCStringList@@PAD@Z 10015a10 f   monitor.obj
 0001:00014fe0       ?HTTPCLUSTER@@YAHAAVCStringList@@PAD@Z 10015fe0 f   monitor.obj
 0001:00015680       ?RLOGINCLUSTER@@YAHAAVCStringList@@PAD@Z 10016680 f   monitor.obj
 0001:00015fe0       _CLUSTER                   10016fe0 f   monitor.obj
 0001:00016180       _DB                        10017180 f   monitor.obj
 0001:00016950       _DNS                       10017950 f   monitor.obj
 0001:00016eb0       _DYNAMO                    10017eb0 f   monitor.obj
 0001:00017550       _F5                        10018550 f   monitor.obj
 0001:00017bf0       _FOUNDRYCPUS               10018bf0 f   monitor.obj
 0001:00018030       _FOUNDRYMEM                10019030 f   monitor.obj
 0001:00018030       _FOUNDRYCPU                10019030 f   monitor.obj
 0001:000186d0       _FTP                       100196d0 f   monitor.obj
 0001:00019340       _TFTP                      1001a340 f   monitor.obj
 0001:00019840       _IPLANET                   1001a840 f   monitor.obj
 0001:00019ec0       _LDAP                      1001aec0 f   monitor.obj
 0001:0001a550       ?TELLOGFILE@@YAHAAVCStringList@@PAD@Z 1001b550 f   monitor.obj
 0001:0001b210       ?SSHLOGFILE@@YAHAAVCStringList@@PAD@Z 1001c210 f   monitor.obj
 0001:0001bba0       _LOGFILE                   1001cba0 f   monitor.obj
 0001:0001bd40       _NETSCREENRES              1001cd40 f   monitor.obj
 0001:0001c4a0       _NETSCREENSERVICE          1001d4a0 f   monitor.obj
 0001:0001cb40       _NETSCREENSERVICEGROUP     1001db40 f   monitor.obj
 0001:0001d1e0       _NETSCREENSERVICEGROUPMEMBER 1001e1e0 f   monitor.obj
 0001:0001d880       _NETSCREENVPN              1001e880 f   monitor.obj
 0001:0001df20       _NETSCREENATTACK           1001ef20 f   monitor.obj
 0001:0001e680       _NETSCREENPACKDROP         1001f680 f   monitor.obj
 0001:0001ede0       ?TELMQSTATUS@@YA_NAAVCStringList@@PAD@Z 1001fde0 f   monitor.obj
 0001:0001f840       ?TELMQ@@YA_NAAVCStringList@@PAD@Z 10020840 f   monitor.obj
 0001:00020240       ?SSHMQ@@YA_NAAVCStringList@@PAD@Z 10021240 f   monitor.obj
 0001:000207a0       ?HTTPMQ@@YA_NAAVCStringList@@PAD@Z 100217a0 f   monitor.obj
 0001:00020e40       ?RLOGINMQ@@YA_NAAVCStringList@@PAD@Z 10021e40 f   monitor.obj
 0001:00021780       _MQSTATUS                  10022780 f   monitor.obj
 0001:00021950       _MQ                        10022950 f   monitor.obj
 0001:00021b20       _NEWS                      10022b20 f   monitor.obj
 0001:00022360       _PING                      10023360 f   monitor.obj
 0001:00022710       _VIPPING                   10023710 f   monitor.obj
 0001:00022ac0       _PORT                      10023ac0 f   monitor.obj
 0001:00023290       _RADIUS                    10024290 f   monitor.obj
 0001:00023a70       _SILVERSTREAM              10024a70 f   monitor.obj
 0001:000240f0       _SYBASE                    100250f0 f   monitor.obj
 0001:000243f0       _NETTRAFFIC                100253f0 f   monitor.obj
 0001:000244d0       _TRAFFIC                   100254d0 f   monitor.obj
 0001:00024b10       _HUAWEICPU                 10025b10 f   monitor.obj
 0001:00025020       _HUAWEISWITCHCPU           10026020 f   monitor.obj
 0001:00025600       _TRAP                      10026600 f   monitor.obj
 0001:00025800       ?SSHCPU@@YAHAAVCStringList@@PAD@Z 10026800 f   monitor.obj
 0001:00025d90       ?HTTPCPU@@YAHAAVCStringList@@PAD@Z 10026d90 f   monitor.obj
 0001:00026380       ?RLOGINCPU@@YAHAAVCStringList@@PAD@Z 10027380 f   monitor.obj
 0001:00026bd0       ?HP_SSHCPU@@YAHAAVCStringList@@PAD@Z 10027bd0 f   monitor.obj
 0001:00027160       ?HP_HTTPCPU@@YAHAAVCStringList@@PAD@Z 10028160 f   monitor.obj
 0001:00027750       ?HP_RLOGINCPU@@YAHAAVCStringList@@PAD@Z 10028750 f   monitor.obj
 0001:00027fa0       ?TELUNIXPERF@@YAHAAVCStringList@@PAD@Z 10028fa0 f   monitor.obj
 0001:000288e0       ?SSHUNIXPERF@@YAHAAVCStringList@@PAD@Z 100298e0 f   monitor.obj
 0001:00028e80       ?HTTPUNIXPERF@@YAHAAVCStringList@@PAD@Z 10029e80 f   monitor.obj
 0001:00029470       ?RLOGINUNIXPERF@@YAHAAVCStringList@@PAD@Z 1002a470 f   monitor.obj
 0001:00029ce0       _UNIXPERF                  1002ace0 f   monitor.obj
 0001:00029e80       _TELMEMORY_zw              1002ae80 f   monitor.obj
 0001:0002a720       ?SSHMEMORY@@YAHAAVCStringList@@PADH@Z 1002b720 f   monitor.obj
 0001:0002acb0       ?HTTPMEMORY@@YAHAAVCStringList@@PADH@Z 1002bcb0 f   monitor.obj
 0001:0002b2b0       ?RLOGINMEMORY@@YAHAAVCStringList@@PADH@Z 1002c2b0 f   monitor.obj
 0001:0002bb70       ?SSHDISK@@YA_NAAVCStringList@@PAD@Z 1002cb70 f   monitor.obj
 0001:0002c190       ?SSHSERVICE@@YA_NAAVCStringList@@PAD@Z 1002d190 f   monitor.obj
 0001:0002c7e0       ?TELSCRIPT@@YAHAAVCStringList@@PAD@Z 1002d7e0 f   monitor.obj
 0001:0002d2e0       ?SSHSCRIPT@@YAHAAVCStringList@@PAD@Z 1002e2e0 f   monitor.obj
 0001:0002d9d0       ?HTTPSCRIPT@@YAHAAVCStringList@@PAD@Z 1002e9d0 f   monitor.obj
 0001:0002e1f0       ?RLOGINSCRIPT@@YAHAAVCStringList@@PAD@Z 1002f1f0 f   monitor.obj
 0001:0002ec70       _SCRIPT                    1002fc70 f   monitor.obj
 0001:0002ee80       ?TELSCRIPTS@@YAHAAVCStringList@@PAD@Z 1002fe80 f   monitor.obj
 0001:0002f8a0       ?SSHSCRIPTS@@YAHAAVCStringList@@PAD@Z 100308a0 f   monitor.obj
 0001:0002fdc0       ?HTTPSCRIPTS@@YAHAAVCStringList@@00@Z 10030dc0 f   monitor.obj
 0001:00030590       ?RLOGINSCRIPTS@@YAHAAVCStringList@@00@Z 10031590 f   monitor.obj
 0001:00030f20       _SCRIPTS                   10031f20 f   monitor.obj
 0001:000312d0       ?SSHSERVICES@@YAHAAVCStringList@@PADH@Z 100322d0 f   monitor.obj
 0001:00031770       ?HTTPSERVICES@@YAHAAVCStringList@@00@Z 10032770 f   monitor.obj
 0001:00031e50       ?RLOGINSERVICES@@YAHAAVCStringList@@00@Z 10032e50 f   monitor.obj
 0001:00032730       _VPN                       10033730 f   monitor.obj
 0001:00033050       _INTERFACES                10034050 f   monitor.obj
 0001:000334c0       _REMOTEPING                100344c0 f   monitor.obj
 0001:00033c30       _CISCOINTERFACES           10034c30 f   monitor.obj
 0001:00034050       _CURL                      10035050 f   monitor.obj
 0001:00034720       _CISCOCONFIG               10035720 f   monitor.obj
 0001:00035230       _CISCOCPU                  10036230 f   monitor.obj
 0001:00035740       _DHCP                      10036740 f   monitor.obj
 0001:00035a00       _WEBLOGIC5X                10036a00 f   monitor.obj
 0001:000360a0       _WEBLOGIC7X                100370a0 f   monitor.obj
 0001:00036740       _WEBSPHERES                10037740 f   monitor.obj
 0001:00036df0       _WEBSPHERE                 10037df0 f   monitor.obj
 0001:000377b0       _VPNS                      100387b0 f   monitor.obj
 0001:00037900       _SYSTEMDSN                 10038900 f   monitor.obj
 0001:00037a40       _DisplayAgentList          10038a40 f   monitor.obj
 0001:00037a50       ?TELSCRIPT2@@YAHAAVCStringList@@PAD@Z 10038a50 f   monitor.obj
 0001:00038550       _SCRIPT2                   10039550 f   monitor.obj
 0001:000386f0       _AixDiskAct                100396f0 f   monitor.obj
 0001:00039140       ??HATL@@YA?AV?$CStringT@DV?$StrTraitMFC_DLL@DV?$ChTraitsCRT@D@ATL@@@@@0@ABV10@PBD@Z 1003a140 f i monitor.obj
 0001:000391e0       ??1_Node@?$_List_nod@V?$basic_string@DU?$char_traits@D@std@@V?$allocator@D@2@@std@@V?$allocator@V?$basic_string@DU?$char_traits@D@std@@V?$allocator@D@2@@std@@@2@@std@@QAE@XZ 1003a1e0 f i monitor.obj
 0001:000391f0       ??_GCMonitorApp@@UAEPAXI@Z 1003a1f0 f i monitor.obj
 0001:000391f0       ??_ECMonitorApp@@UAEPAXI@Z 1003a1f0 f i monitor.obj
 0001:00039210       ?WriteLogFile@@YAXPBD@Z    1003a210 f   monitor.obj
 0001:00039320       ?TELAIXERRPT@@YA_NAAVCStringList@@PAD@Z 1003a320 f   monitor.obj
 0001:00039d70       _AIXERRPT                  1003ad70 f   monitor.obj
 0001:00039ec0       _MAPI                      1003aec0 f   monitor.obj
 0001:0003ab80       _SNMP                      1003bb80 f   monitor.obj
 0001:0003b370       ?TELCPU@@YAHAAVCStringList@@PAD@Z 1003c370 f   monitor.obj
 0001:0003be30       _CPU                       1003ce30 f   monitor.obj
 0001:0003c010       ?HP_TELCPU@@YAHAAVCStringList@@PAD@Z 1003d010 f   monitor.obj
 0001:0003cad0       _HP_CPU                    1003dad0 f   monitor.obj
 0001:0003cc70       ?TELMEMORY@@YAHAAVCStringList@@PADH@Z 1003dc70 f   monitor.obj
 0001:0003d710       _MEMORY                    1003e710 f   monitor.obj
 0001:0003d930       _PMEMORY                   1003e930 f   monitor.obj
 0001:0003db50       ?TELDISK@@YA_NAAVCStringList@@PAD@Z 1003eb50 f   monitor.obj
 0001:0003e6f0       _DISK                      1003f6f0 f   monitor.obj
 0001:0003e880       ?TELSERVICE@@YA_NAAVCStringList@@PAD@Z 1003f880 f   monitor.obj
 0001:0003f470       _SERVICE                   10040470 f   monitor.obj
 0001:0003f600       ?TELSERVICES@@YAHAAVCStringList@@PADH@Z 10040600 f   monitor.obj
 0001:00040050       _SERVICES                  10041050 f   monitor.obj
 0001:00040370       _INTER_DESCR               10041370 f   monitor.obj
 0001:00040910       _GTJA                      10041910 f   monitor.obj
 0001:000411f0       ?_Buynode@?$list@V?$basic_string@DU?$char_traits@D@std@@V?$allocator@D@2@@std@@V?$allocator@V?$basic_string@DU?$char_traits@D@std@@V?$allocator@D@2@@std@@@2@@std@@IAEPAU_Node@?$_List_nod@V?$basic_string@DU?$char_traits@D@std@@V?$allocator@D@2@@std@@V?$allocator@V?$basic_string@DU?$char_traits@D@std@@V?$allocator@D@2@@std@@@2@@2@XZ 100421f0 f i monitor.obj
 0001:00041210       ?_Buynode@?$list@V?$basic_string@DU?$char_traits@D@std@@V?$allocator@D@2@@std@@V?$allocator@V?$basic_string@DU?$char_traits@D@std@@V?$allocator@D@2@@std@@@2@@std@@IAEPAU_Node@?$_List_nod@V?$basic_string@DU?$char_traits@D@std@@V?$allocator@D@2@@std@@V?$allocator@V?$basic_string@DU?$char_traits@D@std@@V?$allocator@D@2@@std@@@2@@2@PAU342@0ABV?$basic_string@DU?$char_traits@D@std@@V?$allocator@D@2@@2@@Z 10042210 f i monitor.obj
 0001:000412a0       ?_Incsize@?$list@V?$basic_string@DU?$char_traits@D@std@@V?$allocator@D@2@@std@@V?$allocator@V?$basic_string@DU?$char_traits@D@std@@V?$allocator@D@2@@std@@@2@@std@@IAEXI@Z 100422a0 f i monitor.obj
 0001:00041340       ??0logic_error@std@@QAE@ABV01@@Z 10042340 f i monitor.obj
 0001:000413a0       ??0length_error@std@@QAE@ABV01@@Z 100423a0 f i monitor.obj
 0001:000413c0       ?clear@?$list@V?$basic_string@DU?$char_traits@D@std@@V?$allocator@D@2@@std@@V?$allocator@V?$basic_string@DU?$char_traits@D@std@@V?$allocator@D@2@@std@@@2@@std@@QAEXXZ 100423c0 f i monitor.obj
 0001:00041400       ??1?$list@V?$basic_string@DU?$char_traits@D@std@@V?$allocator@D@2@@std@@V?$allocator@V?$basic_string@DU?$char_traits@D@std@@V?$allocator@D@2@@std@@@2@@std@@QAE@XZ 10042400 f i monitor.obj
 0001:00041420       ?MakeDisksReturn@@YAXPADAAH@Z 10042420 f   monitor.obj
 0001:00041850       ?TELDISKS@@YA_NAAVCStringList@@PADH@Z 10042850 f   monitor.obj
 0001:000422d0       ?SSHDISKS@@YA_NAAVCStringList@@PADH@Z 100432d0 f   monitor.obj
 0001:00042820       _DISKS                     10043820 f   monitor.obj
 0001:00042990       ?MQ_SSH_VALUE@@YA_NPADH000000@Z 10043990 f   MQ.obj
 0001:000429d0       ?HTTP_MQ_VALUE@@YA_NPAD000H000000@Z 100439d0 f   MQ.obj
 0001:00042a10       ?RLOGIN_MQ_VALUE@@YA_NPADH000H00000000@Z 10043a10 f   MQ.obj
 0001:00042a50       ?MQ_GETDATA@@YAHHPAD0AAV?$CStringT@DV?$StrTraitMFC_DLL@DV?$ChTraitsCRT@D@ATL@@@@@ATL@@@Z 10043a50 f   MQ.obj
 0001:00042d60       ?MQ_PARSE@@YAHV?$CStringT@DV?$StrTraitMFC_DLL@DV?$ChTraitsCRT@D@ATL@@@@@ATL@@PAD@Z 10043d60 f   MQ.obj
 0001:00042f40       ?MQ_STATUS_GETDATA@@YAHHPAD00AAV?$CStringT@DV?$StrTraitMFC_DLL@DV?$ChTraitsCRT@D@ATL@@@@@ATL@@@Z 10043f40 f   MQ.obj
 0001:000432d0       ?MQ_TEL_VALUE@@YA_NPADH000H000000000@Z 100442d0 f   MQ.obj
 0001:000435d0       ?MQ_TEL_STATUS_VALUE@@YA_NPADH000H0000000000@Z 100445d0 f   MQ.obj
 0001:00043960       ?NETSCREENRES_MONITOR@@YAHPADH0V?$CStringT@DV?$StrTraitMFC_DLL@DV?$ChTraitsCRT@D@ATL@@@@@ATL@@HH00@Z 10044960 f   NetScreen.obj
 0001:00043e50       ?NETSCREENSERVICE_MONITOR@@YAHPADH0V?$CStringT@DV?$StrTraitMFC_DLL@DV?$ChTraitsCRT@D@ATL@@@@@ATL@@HH00@Z 10044e50 f   NetScreen.obj
 0001:00044380       ?NETSCREENSERVICEGROUP_MONITOR@@YAHPADH0V?$CStringT@DV?$StrTraitMFC_DLL@DV?$ChTraitsCRT@D@ATL@@@@@ATL@@HH00@Z 10045380 f   NetScreen.obj
 0001:00044840       ?NETSCREENSERVICEGROUPMEMBER_MONITOR@@YAHPADH0V?$CStringT@DV?$StrTraitMFC_DLL@DV?$ChTraitsCRT@D@ATL@@@@@ATL@@HH00@Z 10045840 f   NetScreen.obj
 0001:00044cf0       ?NETSCREENVPN_MONITOR@@YAHPADH0V?$CStringT@DV?$StrTraitMFC_DLL@DV?$ChTraitsCRT@D@ATL@@@@@ATL@@HH00@Z 10045cf0 f   NetScreen.obj
 0001:000451c0       ?NETSCREENATTACK_MONITOR@@YAHPADH0V?$CStringT@DV?$StrTraitMFC_DLL@DV?$ChTraitsCRT@D@ATL@@@@@ATL@@HH00@Z 100461c0 f   NetScreen.obj
 0001:00045700       ?NETSCREENPACKDROP_MONITOR@@YAHPADH0V?$CStringT@DV?$StrTraitMFC_DLL@DV?$ChTraitsCRT@D@ATL@@@@@ATL@@HH00@Z 10046700 f   NetScreen.obj
 0001:00045c30       ??1CNNTPSocket@@UAE@XZ     10046c30 f   News.obj
 0001:00045c40       ??0CNNTPConnection@@QAE@H@Z 10046c40 f   News.obj
 0001:00045cc0       ??1CNNTPConnection@@UAE@XZ 10046cc0 f   News.obj
 0001:00045ce0       ?CommandResponse@CNNTPConnection@@QAEHAAV?$CStringT@DV?$StrTraitMFC_DLL@DV?$ChTraitsCRT@D@ATL@@@@@ATL@@@Z 10046ce0 f   News.obj
 0001:00045ec0       ?Disconnect@CNNTPConnection@@QAEHXZ 10046ec0 f   News.obj
 0001:00045f90       ??_GCNNTPSocket@@UAEPAXI@Z 10046f90 f i News.obj
 0001:00045f90       ??_ECNNTPSocket@@UAEPAXI@Z 10046f90 f i News.obj
 0001:00045fb0       ?Connect@CNNTPSocket@@QAEHPBDH@Z 10046fb0 f   News.obj
 0001:00046070       ??_GCNNTPConnection@@UAEPAXI@Z 10047070 f i News.obj
 0001:00046070       ??_ECNNTPConnection@@UAEPAXI@Z 10047070 f i News.obj
 0001:00046090       ?LoginUser@CNNTPConnection@@QAEHPBD@Z 10047090 f   News.obj
 0001:000461d0       ?Group@CNNTPConnection@@QAEHPBDAAH@Z 100471d0 f   News.obj
 0001:00046320       ?Connect@CNNTPConnection@@QAEHPBD00H@Z 10047320 f   News.obj
 0001:000464d0       ?NEWS_MONITOR@@YAHPADHAAVCStringList@@00H000@Z 100474d0 f   News.obj
 0001:00046670       ?RecvEchoReply@@YAJIPAUsockaddr_in@@PAEPAH211@Z 10047670 f   Ping.obj
 0001:00046740       ?SendEchoRequest@@YAHIPAUsockaddr_in@@HH@Z 10047740 f   Ping.obj
 0001:000467f0       ?PING_MONITOR@@YAHPADJHH00@Z 100477f0 f   Ping.obj
 0001:00046be0       ?PORT_MONITOR@@YAHPADH00H0H0000@Z 10047be0 f   Port.obj
 0001:00047040       ?RADIUS_MONITOR@@YAHPADH000H000@Z 10048040 f   Radius.obj
 0001:000475d0       ?REMOTEPING_MONITOR@@YAHPADH00HHHH00@Z 100485d0 f   RemotePing.obj
 0001:00049b90       ?rlogin_init@@YAIPADH0H00@Z 1004ab90 f   RloginMonitor.obj
 0001:0004a000       ?rlogin_command@@YAHIPAD@Z 1004b000 f   RloginMonitor.obj
 0001:0004a200       ?rlogin_connect@@YAHIPAD00QAY0BAA@D@Z 1004b200 f   RloginMonitor.obj
 0001:0004a6b0       ?RloginMonitorValue@@YAHPADH000H00000H000@Z 1004b6b0 f   RloginMonitor.obj
 0001:0004aa20       ?RloginUnixPerfMonitorValue@@YAHPADH000H0000000@Z 1004ba20 f   RloginMonitor.obj
 0001:0004ad10       ?TELEXESCRIPT@@YAHPADH000H00000000000@Z 1004bd10 f   Script.obj
 0001:0004b2e0       ?TELGETSCRIPT@@YA?AV?$CStringT@DV?$StrTraitMFC_DLL@DV?$ChTraitsCRT@D@ATL@@@@@ATL@@PADH000H0000000@Z 1004c2e0 f   Script.obj
 0001:0004b6c0       ?SSHEXESCRIPT@@YAHPADH00000000@Z 1004c6c0 f   Script.obj
 0001:0004bba0       ?SSHGETSCRIPT@@YA?AV?$CStringT@DV?$StrTraitMFC_DLL@DV?$ChTraitsCRT@D@ATL@@@@@ATL@@PADH0000@Z 1004cba0 f   Script.obj
 0001:0004bd30       ?HTTPEXESCRIPT@@YAHPAD000H00000000@Z 1004cd30 f   Script.obj
 0001:0004c0f0       ?HTTPGETSCRIPT@@YA?AV?$CStringT@DV?$StrTraitMFC_DLL@DV?$ChTraitsCRT@D@ATL@@@@@ATL@@PAD000H0000@Z 1004d0f0 f   Script.obj
 0001:0004c220       ?RLOGINEXESCRIPT@@YAHPADH000H0000000000@Z 1004d220 f   Script.obj
 0001:0004c750       ?RLOGINGETSCRIPT@@YA?AV?$CStringT@DV?$StrTraitMFC_DLL@DV?$ChTraitsCRT@D@ATL@@@@@ATL@@PADH000H000000@Z 1004d750 f   Script.obj
 0001:0004c910       ?PaseString2@@YAHV?$CStringT@DV?$StrTraitMFC_DLL@DV?$ChTraitsCRT@D@ATL@@@@@ATL@@AAVCStringList@@@Z 1004d910 f   Script.obj
 0001:0004ca10       ?TELEXESCRIPT2@@YAHPADH000H00000000000@Z 1004da10 f   Script.obj
 0001:0004ce10       ?SILVERSTREAM_MONITOR@@YAHPADH000H0000@Z 1004de10 f   SilverStream.obj
 0001:0004d2e0       ?SNMP_MONITOR@@YAHPADH00HH000@Z 1004e2e0 f   SNMP.obj
 0001:0004d8a0       ?a1writeoid@@YAHPAEPAUoid@@@Z 1004e8a0 f   SnmpUtils.obj
 0001:0004d930       ?a1writelen@@YAHPAEH@Z     1004e930 f   SnmpUtils.obj
 0001:0004d970       ?a1writeint@@YAHHPAEH@Z    1004e970 f   SnmpUtils.obj
 0001:0004d9f0       ?a1readlen@@YAHPAEPAH@Z    1004e9f0 f   SnmpUtils.obj
 0001:0004da40       ?a1readoid@@YAHPAEHPAUoid@@@Z 1004ea40 f   SnmpUtils.obj
 0001:0004dab0       ?AddToResult@@YAXPAPAUsnval@@PAU1@@Z 1004eab0 f   SnmpUtils.obj
 0001:0004daf0       ?MakeSocket@@YAHPADHAAHAAUsockaddr_in@@@Z 1004eaf0 f   SnmpUtils.obj
 0001:0004db60       ?compare_oid@@YAHUoid@@0@Z 1004eb60 f   SnmpUtils.obj
 0001:0004db90       ?a1readint@@YAHPAEH@Z      1004eb90 f   SnmpUtils.obj
 0001:0004dc10       ?SN_PARSE_VALUES@@YAXPAEHPAH11PAUoid@@PAPAUsnval@@@Z 1004ec10 f   SnmpUtils.obj
 0001:0004e290       ?SN_PARSE@@YAXPAEHPAH11PAUoid@@PAUsnval@@@Z 1004f290 f   SnmpUtils.obj
 0001:0004e760       ?findout_oid@@YAPAUoid@@PAU1@@Z 1004f760 f   SnmpUtils.obj
 0001:0004e7f0       ?SN_VALUE@@YAHHUsockaddr_in@@PADHPAUoid@@PAUsnval@@@Z 1004f7f0 f   SnmpUtils.obj
 0001:0004ed60       ?SN_NEXT_VALUE@@YAHHUsockaddr_in@@PADHPAUoid@@2PAUsnval@@@Z 1004fd60 f   SnmpUtils.obj
 0001:0004f2d0       ?SN_VALUES@@YAHHUsockaddr_in@@PADHPAUoid@@PAPAUsnval@@@Z 100502d0 f   SnmpUtils.obj
 0001:0004f880       ?SN_SET_VALUES@@YAHHUsockaddr_in@@PADHPAUoid@@PAUsnval@@@Z 10050880 f   SnmpUtils.obj
 0001:0004ffa0       ?VerifyObject@@YAPAUoid@@PAD@Z 10050fa0 f   SnmpUtils.obj
 0001:000502b0       ?executeExeFile@@YAHV?$CStringT@DV?$StrTraitMFC_DLL@DV?$ChTraitsCRT@D@ATL@@@@@ATL@@AAV12@@Z 100512b0 f   SSHMonitor.obj
 0001:00050710       ?SSHMonitorValue@@YA_NPADH00H00000@Z 10051710 f   SSHMonitor.obj
 0001:00050ab0       ?SSHUnixPerfMonitorValue@@YAHPADH000000@Z 10051ab0 f   SSHMonitor.obj
 0001:00050df0       ?ssh_command@@YAHPADH0000AAV?$CStringT@DV?$StrTraitMFC_DLL@DV?$ChTraitsCRT@D@ATL@@@@@ATL@@@Z 10051df0 f   SSHMonitor.obj
 0001:00050f00       ?SYBASE_MONITOR@@YAHPAD0000@Z 10051f00 f   Sybase.obj
 0001:00051320       ?telnet_init@@YAIPADH0H00@Z 10052320 f   TelMonitor.obj
 0001:00051730       ?telnet_setlinewidth@@YAHIEE@Z 10052730 f   TelMonitor.obj
 0001:000517c0       ?telnet_protocol@@YAXIEPAUst_gd@@PAUTel_Param@@@Z 100527c0 f   TelMonitor.obj
 0001:00051930       ?telnet_protocol@@YAXIEPAUst_gd@@@Z 10052930 f   TelMonitor.obj
 0001:00051b10       ?telnet_command@@YAHIPADPAUst_gd@@@Z 10052b10 f   TelMonitor.obj
 0001:00051d90       ?noreply@@YAXIW4_verb@@W4_option@@@Z 10052d90 f   TelMonitor.obj
 0001:00051df0       ?yesreply@@YAXIW4_verb@@W4_option@@@Z 10052df0 f   TelMonitor.obj
 0001:00051e50       ?ddww_echo@@YAXIW4_verb@@W4_option@@@Z 10052e50 f   TelMonitor.obj
 0001:00051e80       ?ddww_term@@YAXIW4_verb@@W4_option@@@Z 10052e80 f   TelMonitor.obj
 0001:00051eb0       ?sbproc_term@@YAXIEPAUst_gd@@@Z 10052eb0 f   TelMonitor.obj
 0001:00051f50       ?ddww_error@@YAXIW4_verb@@W4_option@@@Z 10052f50 f   TelMonitor.obj
 0001:00051f80       ?nvt@@YAXIEPAUst_gd@@@Z    10052f80 f   TelMonitor.obj
 0001:00051fa0       ?ansi@@YAXIEPAUst_gd@@@Z   10052fa0 f   TelMonitor.obj
 0001:00052080       ??3@YAXPAX0@Z              10053080 f   monitor.obj
 0001:00052080       ?ansi_erase_screen@@YAXPAD@Z 10053080 f   TelMonitor.obj
 0001:00052080       ?ansi_erase_line@@YAXPAD@Z 10053080 f   TelMonitor.obj
 0001:00052080       ?ansi_set_position@@YAXPAD@Z 10053080 f   TelMonitor.obj
 0001:00052080       ?ansi_move_up@@YAXPAD@Z    10053080 f   TelMonitor.obj
 0001:00052080       ?AssertValid@CObject@@UBEXXZ 10053080 f   AddrTable.obj
 0001:00052080       ?ddww_supp@@YAXIW4_verb@@W4_option@@@Z 10053080 f   TelMonitor.obj
 0001:00052080       ?ansi_set_screen_attribute@@YAXPAD@Z 10053080 f   TelMonitor.obj
 0001:00052090       ?telnet_connect@@YAHIPAD000QAY0BAA@DPAUst_gd@@@Z 10053090 f   TelMonitor.obj
 0001:00052560       _telnet_connect            10053560 f   TelMonitor.obj
 0001:00052b40       ?telnet_command@@YAHIPADPAUst_gd@@PAUTel_Param@@@Z 10053b40 f   TelMonitor.obj
 0001:00052dc0       ?MonitorValue@@YA_NPADH000H000000H000@Z 10053dc0 f   TelMonitor.obj
 0001:00053380       ?MonitorValue_zw@@YAHPADH000H0000000H000@Z 10054380 f   TelMonitor.obj
 0001:00053840       ?UnixPerfMonitorValue@@YAHPADH000H00000000@Z 10054840 f   TelMonitor.obj
 0001:00053c70       ?WriteLogFile@@YAXV?$CStringT@DV?$StrTraitMFC_DLL@DV?$ChTraitsCRT@D@ATL@@@@@ATL@@0@Z 10054c70 f   Traffic.obj
 0001:00053e00       ?TRAFFIC_MONITOR@@YAHPADH0HHHV?$CStringT@DV?$StrTraitMFC_DLL@DV?$ChTraitsCRT@D@ATL@@@@@ATL@@00@Z 10054e00 f   Traffic.obj
 0001:00054680       ?TRAP_MONITOR@@YAHPADH00@Z 10055680 f   TRAP.obj
 0001:000548a0       ?ExecuteFile@@YAXV?$CStringT@DV?$StrTraitMFC_DLL@DV?$ChTraitsCRT@D@ATL@@@@@ATL@@AAV12@HH@Z 100558a0 f   URL.obj
 0001:00054b40       ?CODE_VALUE@@YAHV?$CStringT@DV?$StrTraitMFC_DLL@DV?$ChTraitsCRT@D@ATL@@@@@ATL@@AAV12@@Z 10055b40 f   URL.obj
 0001:00055560       ?URL_MONITOR@@YAHPAD00H000H00HH00@Z 10056560 f   URL.obj
 0001:00055b10       ?connect_timeo@@YAHHPBUsockaddr@@HH@Z 10056b10 f   Utils.obj
 0001:00055ca0       ?RESPONSE_WAIT@@YAHIH@Z    10056ca0 f   Utils.obj
 0001:00055cf0       ?GetUrlData@@YAHPADH000H00H0@Z 10056cf0 f   Utils.obj
 0001:000562b0       ?GetIniFileName@@YAHPBDPAD@Z 100572b0 f   Utils.obj
 0001:000562d0       ?ReturnParser@@YAP6AHPBDHPAD0@ZH@Z 100572d0 f   Utils.obj
 0001:000564b0       ?MONITOR_PARSE@@YAHHPAD000@Z 100574b0 f   Utils.obj
 0001:000569d0       ?MONITOR_PARSE_zw@@YAHHPAD0000@Z 100579d0 f   Utils.obj
 0001:00056ee0       _RETURN_COMMAND            10057ee0 f   Utils.obj
 0001:00057280       ?socks5_protocol@@YAHIPADH0H00H@Z 10058280 f   Utils.obj
 0001:000575d0       ?WriteLogFile1@@YAXPBD@Z   100585d0 f   Utils.obj
 0001:000576e0       ?RasDialFunc@@YGXIW4tagRASCONNSTATE@@K@Z 100586e0 f   VPN.obj
 0001:00057700       ?DialCourse@@YAHPAD00000@Z 10058700 f   VPN.obj
 0001:00057970       ?VpnCourse@@YAHPAD00000@Z  10058970 f   VPN.obj
 0001:00057be0       ?VPN_MONITOR@@YAHPAD000H000000@Z 10058be0 f   VPN.obj
 0001:00057d30       ?WEBLOGIC5X_MONITOR@@YAHPADH0V?$CStringT@DV?$StrTraitMFC_DLL@DV?$ChTraitsCRT@D@ATL@@@@@ATL@@HH00@Z 10058d30 f   WebLogic5x.obj
 0001:00058230       ?WEBLOGIC7X_MONITOR@@YAHPADH0V?$CStringT@DV?$StrTraitMFC_DLL@DV?$ChTraitsCRT@D@ATL@@@@@ATL@@HH00@Z 10059230 f   WebLogic7x.obj
 0001:000586d0       ?WEBSPHERE_MONITOR@@YAHPAD0H0000H00HH00@Z 100596d0 f   Websphere.obj
 0001:000586d0       ?WEBSPHERES_MONITOR@@YAHPAD0H000H00HH0AAVCStringList@@1@Z 100596d0 f   Websphere.obj
 0001:000586d4       _RasGetErrorStringA@12     100596d4 f   Rasapi32:RASAPI32.dll
 0001:000586da       _RasEnumEntriesA@20        100596da f   Rasapi32:RASAPI32.dll
 0001:000586e0       _RasHangUpA@4              100596e0 f   Rasapi32:RASAPI32.dll
 0001:000586e6       _RasDialA@24               100596e6 f   Rasapi32:RASAPI32.dll
 0001:000586ec       ?AfxThrowMemoryException@@YGXXZ 100596ec f   mfc71:MFC71.DLL
 0001:000586f2       ?AfxThrowInvalidArgException@@YGXXZ 100596f2 f   mfc71:MFC71.DLL
 0001:000586f8       ??3@YAXPAX@Z               100596f8 f   mfc71:MFC71.DLL
 0001:000586fe       ??2@YAPAXI@Z               100596fe f   mfc71:MFC71.DLL
 0001:00058704       ?GetRuntimeClass@CObject@@UBEPAUCRuntimeClass@@XZ 10059704 f   mfc71:MFC71.DLL
 0001:0005870a       ?ReportError@CException@@UAEHII@Z 1005970a f   mfc71:MFC71.DLL
 0001:00058710       ?Close@CDatabase@@UAEXXZ   10059710 f   mfc71:MFC71.DLL
 0001:00058716       ?Delete@CException@@QAEXXZ 10059716 f   mfc71:MFC71.DLL
 0001:0005871c       ?GetFieldValue@CRecordset@@QAEXFAAV?$CStringT@DV?$StrTraitMFC_DLL@DV?$ChTraitsCRT@D@ATL@@@@@ATL@@@Z 1005971c f   mfc71:MFC71.DLL
 0001:00058722       ??0CRecordset@@QAE@PAVCDatabase@@@Z 10059722 f   mfc71:MFC71.DLL
 0001:00058728       ??1CDatabase@@UAE@XZ       10059728 f   mfc71:MFC71.DLL
 0001:0005872e       ?OpenEx@CDatabase@@UAEHPBDK@Z 1005972e f   mfc71:MFC71.DLL
 0001:00058734       ??0CDatabase@@QAE@XZ       10059734 f   mfc71:MFC71.DLL
 0001:0005873a       ?FindIndex@CStringList@@QBEPAU__POSITION@@H@Z 1005973a f   mfc71:MFC71.DLL
 0001:00058740       ?AddTail@CStringList@@QAEPAU__POSITION@@ABV?$CStringT@DV?$StrTraitMFC_DLL@DV?$ChTraitsCRT@D@ATL@@@@@ATL@@@Z 10059740 f   mfc71:MFC71.DLL
 0001:00058746       ?AddHead@CStringList@@QAEPAU__POSITION@@PBD@Z 10059746 f   mfc71:MFC71.DLL
 0001:0005874c       ?RemoveAll@CStringList@@QAEXXZ 1005974c f   mfc71:MFC71.DLL
 0001:00058752       ?QueryInfoStatusCode@CHttpFile@@QBEHAAK@Z 10059752 f   mfc71:MFC71.DLL
 0001:00058758       ?SendRequest@CHttpFile@@QAEHPBDKPAXK@Z 10059758 f   mfc71:MFC71.DLL
 0001:0005875e       ?AddRequestHeaders@CHttpFile@@QAEHAAV?$CStringT@DV?$StrTraitMFC_DLL@DV?$ChTraitsCRT@D@ATL@@@@@ATL@@K@Z 1005975e f   mfc71:MFC71.DLL
 0001:00058764       ?OpenRequest@CHttpConnection@@QAEPAVCHttpFile@@HPBD0KPAPBD0K@Z 10059764 f   mfc71:MFC71.DLL
 0001:0005876a       ?GetHttpConnection@CInternetSession@@QAEPAVCHttpConnection@@PBDG00@Z 1005976a f   mfc71:MFC71.DLL
 0001:00058770       ?AfxParseURL@@YGHPBDAAKAAV?$CStringT@DV?$StrTraitMFC_DLL@DV?$ChTraitsCRT@D@ATL@@@@@ATL@@2AAG@Z 10059770 f   mfc71:MFC71.DLL
 0001:00058776       ??0CInternetSession@@QAE@PBDKK00K@Z 10059776 f   mfc71:MFC71.DLL
 0001:0005877c       ?GetErrorMessage@CFileException@@UAEHPADIPAI@Z 1005977c f   mfc71:MFC71.DLL
 0001:00058782       ?GetRuntimeClass@CFileException@@UBEPAUCRuntimeClass@@XZ 10059782 f   mfc71:MFC71.DLL
 0001:00058788       ??0CException@@QAE@XZ      10059788 f   mfc71:MFC71.DLL
 0001:0005878e       ?GetConnectionHook@CCmdTarget@@MAEPAUIConnectionPoint@@ABU_GUID@@@Z 1005978e f   mfc71:MFC71.DLL
 0001:00058794       ?GetExtraConnectionPoints@CCmdTarget@@MAEHPAVCPtrArray@@@Z 10059794 f   mfc71:MFC71.DLL
 0001:0005879a       ?GetInterfaceHook@CCmdTarget@@UAEPAUIUnknown@@PBX@Z 1005979a f   mfc71:MFC71.DLL
 0001:000587a0       ?OnCreateAggregates@CCmdTarget@@UAEHXZ 100597a0 f   mfc71:MFC71.DLL
 0001:000587a6       ?GetEventSinkMap@CCmdTarget@@MBEPBUAFX_EVENTSINKMAP@@XZ 100597a6 f   mfc71:MFC71.DLL
 0001:000587ac       ?GetConnectionMap@CCmdTarget@@MBEPBUAFX_CONNECTIONMAP@@XZ 100597ac f   mfc71:MFC71.DLL
 0001:000587b2       ?GetCommandMap@CCmdTarget@@MBEPBUAFX_OLECMDMAP@@XZ 100597b2 f   mfc71:MFC71.DLL
 0001:000587b8       ?GetTypeLib@CCmdTarget@@UAEJKPAPAUITypeLib@@@Z 100597b8 f   mfc71:MFC71.DLL
 0001:000587be       ?GetTypeLibCache@CCmdTarget@@UAEPAVCTypeLibCache@@XZ 100597be f   mfc71:MFC71.DLL
 0001:000587c4       ?GetTypeInfoCount@CCmdTarget@@UAEIXZ 100597c4 f   mfc71:MFC71.DLL
 0001:000587ca       ?GetDispatchIID@CCmdTarget@@UAEHPAU_GUID@@@Z 100597ca f   mfc71:MFC71.DLL
 0001:000587d0       ?IsInvokeAllowed@CCmdTarget@@UAEHJ@Z 100597d0 f   mfc71:MFC71.DLL
 0001:000587d6       ?OnCmdMsg@CCmdTarget@@UAEHIHPAXPAUAFX_CMDHANDLERINFO@@@Z 100597d6 f   mfc71:MFC71.DLL
 0001:000587dc       ?OnFinalRelease@CCmdTarget@@UAEXXZ 100597dc f   mfc71:MFC71.DLL
 0001:000587e2       ??1CStringList@@UAE@XZ     100597e2 f   mfc71:MFC71.DLL
 0001:000587e8       ??0CStringList@@QAE@H@Z    100597e8 f   mfc71:MFC71.DLL
 0001:000587ee       ?ReadCount@CArchive@@QAEKXZ 100597ee f   mfc71:MFC71.DLL
 0001:000587f4       ?WriteCount@CArchive@@QAEXK@Z 100597f4 f   mfc71:MFC71.DLL
 0001:000587fa       ?Read@CArchive@@QAEIPAXI@Z 100597fa f   mfc71:MFC71.DLL
 0001:00058800       ?Write@CArchive@@QAEXPBXI@Z 10059800 f   mfc71:MFC71.DLL
 0001:00058806       ?GetRuntimeClass@CCriticalSection@@UBEPAUCRuntimeClass@@XZ 10059806 f   mfc71:MFC71.DLL
 0001:0005880c       ??1CSyncObject@@UAE@XZ     1005980c f   mfc71:MFC71.DLL
 0001:00058812       ??0CSyncObject@@QAE@PBD@Z  10059812 f   mfc71:MFC71.DLL
 0001:00058818       ?Create@CPlex@@SGPAU1@AAPAU1@II@Z 10059818 f   mfc71:MFC71.DLL
 0001:0005881e       ?FreeDataChain@CPlex@@QAEXXZ 1005981e f   mfc71:MFC71.DLL
 0001:00058824       ?GetThisMessageMap@CWinApp@@KGPBUAFX_MSGMAP@@XZ 10059824 f   mfc71:MFC71.DLL
 0001:0005882a       ?LoadSysPolicies@CWinApp@@UAEHXZ 1005982a f   mfc71:MFC71.DLL
 0001:00058830       ?LoadAppLangResourceDLL@CWinApp@@UAEPAUHINSTANCE__@@XZ 10059830 f   mfc71:MFC71.DLL
 0001:00058836       ?WinHelpInternal@CWinApp@@UAEXKI@Z 10059836 f   mfc71:MFC71.DLL
 0001:0005883c       ?HtmlHelpA@CWinApp@@UAEXKI@Z 1005983c f   mfc71:MFC71.DLL
 0001:00058842       ?WinHelpA@CWinApp@@UAEXKI@Z 10059842 f   mfc71:MFC71.DLL
 0001:00058848       ?OnDDECommand@CWinApp@@UAEHPAD@Z 10059848 f   mfc71:MFC71.DLL
 0001:0005884e       ?DoWaitCursor@CWinApp@@UAEXH@Z 1005984e f   mfc71:MFC71.DLL
 0001:00058854       ?DoMessageBox@CWinApp@@UAEHPBDII@Z 10059854 f   mfc71:MFC71.DLL
 0001:0005885a       ?SaveAllModified@CWinApp@@UAEHXZ 1005985a f   mfc71:MFC71.DLL
 0001:00058860       ?InitApplication@CWinApp@@UAEHXZ 10059860 f   mfc71:MFC71.DLL
 0001:00058866       ?AddToRecentFileList@CWinApp@@UAEXPBD@Z 10059866 f   mfc71:MFC71.DLL
 0001:0005886c       ?OpenDocumentFile@CWinApp@@UAEPAVCDocument@@PBD@Z 1005986c f   mfc71:MFC71.DLL
 0001:00058872       ?Unregister@CWinApp@@UAEHXZ 10059872 f   mfc71:MFC71.DLL
 0001:00058878       ?Register@CWinApp@@UAEHXZ  10059878 f   mfc71:MFC71.DLL
 0001:0005887e       ?InitLibId@CWinApp@@UAEXXZ 1005987e f   mfc71:MFC71.DLL
 0001:00058884       ?Delete@CWinThread@@UAEXXZ 10059884 f   mfc71:MFC71.DLL
 0001:0005888a       ?GetMainWnd@CWinThread@@UAEPAVCWnd@@XZ 1005988a f   mfc71:MFC71.DLL
 0001:00058890       ?ProcessMessageFilter@CWinThread@@UAEHHPAUtagMSG@@@Z 10059890 f   mfc71:MFC71.DLL
 0001:00058896       ?ProcessWndProcException@CWinApp@@UAEJPAVCException@@PBUtagMSG@@@Z 10059896 f   mfc71:MFC71.DLL
 0001:0005889c       ?ExitInstance@CWinApp@@UAEHXZ 1005989c f   mfc71:MFC71.DLL
 0001:000588a2       ?IsIdleMessage@CWinThread@@UAEHPAUtagMSG@@@Z 100598a2 f   mfc71:MFC71.DLL
 0001:000588a8       ?OnIdle@CWinApp@@UAEHJ@Z   100598a8 f   mfc71:MFC71.DLL
 0001:000588ae       ?PumpMessage@CWinThread@@UAEHXZ 100598ae f   mfc71:MFC71.DLL
 0001:000588b4       ?PreTranslateMessage@CWinThread@@UAEHPAUtagMSG@@@Z 100598b4 f   mfc71:MFC71.DLL
 0001:000588ba       ?Run@CWinApp@@UAEHXZ       100598ba f   mfc71:MFC71.DLL
 0001:000588c0       ?InitInstance@CWinApp@@UAEHXZ 100598c0 f   mfc71:MFC71.DLL
 0001:000588c6       ?GetInterfaceMap@CCmdTarget@@MBEPBUAFX_INTERFACEMAP@@XZ 100598c6 f   mfc71:MFC71.DLL
 0001:000588cc       ?GetDispatchMap@CCmdTarget@@MBEPBUAFX_DISPMAP@@XZ 100598cc f   mfc71:MFC71.DLL
 0001:000588d2       ?GetRuntimeClass@CWinApp@@UBEPAUCRuntimeClass@@XZ 100598d2 f   mfc71:MFC71.DLL
 0001:000588d8       ??0CWinApp@@QAE@PBD@Z      100598d8 f   mfc71:MFC71.DLL
 0001:000588de       ??1CWinApp@@UAE@XZ         100598de f   mfc71:MFC71.DLL
 0001:000588e4       ??0AFX_MAINTAIN_STATE2@@QAE@PAVAFX_MODULE_STATE@@@Z 100598e4 f   mfc71:MFC71.DLL
 0001:000588ea       ?AddTail@CStringList@@QAEPAU__POSITION@@PBD@Z 100598ea f   mfc71:MFC71.DLL
 0001:000588f0       ?Close@CFile@@UAEXXZ       100598f0 f   mfc71:MFC71.DLL
 0001:000588f6       ?GetLength@CFile@@UBE_KXZ  100598f6 f   mfc71:MFC71.DLL
 0001:000588fc       ??1CFile@@UAE@XZ           100598fc f   mfc71:MFC71.DLL
 0001:00058902       ?Open@CFile@@UAEHPBDIPAVCFileException@@@Z 10059902 f   mfc71:MFC71.DLL
 0001:00058908       ??0CFile@@QAE@XZ           10059908 f   mfc71:MFC71.DLL
 0001:0005890e       ?GetFieldValue@CRecordset@@QAEXPBDAAV?$CStringT@DV?$StrTraitMFC_DLL@DV?$ChTraitsCRT@D@ATL@@@@@ATL@@@Z 1005990e f   mfc71:MFC71.DLL
 0001:00058914       ??1_AFX_DLL_MODULE_STATE@@UAE@XZ 10059914 f i mfcs71:dllmodul.obj
 0001:00058919       ?AfxGetStaticModuleState@@YGPAVAFX_MODULE_STATE@@XZ 10059919 f   mfcs71:dllmodul.obj
 0001:0005891f       _RawDllMain@12             1005991f f   mfcs71:dllmodul.obj
 0001:00058970       ?AfxWndProcDllStatic@@YGJPAUHWND__@@IIJ@Z 10059970 f   mfcs71:dllmodul.obj
 0001:000589b5       _DllMain@12                100599b5 f   mfcs71:dllmodul.obj
 0001:00058adc       ??0_AFX_DLL_MODULE_STATE@@QAE@XZ 10059adc f i mfcs71:dllmodul.obj
 0001:00058afc       ??_E_AFX_DLL_MODULE_STATE@@UAEPAXI@Z 10059afc f i mfcs71:dllmodul.obj
 0001:00058afc       ??_G_AFX_DLL_MODULE_STATE@@UAEPAXI@Z 10059afc f i mfcs71:dllmodul.obj
 0001:00058b17       ??0CComCriticalSection@ATL@@QAE@XZ 10059b17 f i mfcs71:stdafx.obj
 0001:00058b2b       ?Init@CComCriticalSection@ATL@@QAEJXZ 10059b2b f i mfcs71:stdafx.obj
 0001:00058b7c       _free                      10059b7c f   msvcrt:MSVCR71.dll
 0001:00058b90       __except_handler3          10059b90 f   msvcrt:MSVCR71.dll
 0001:00058ba0       __alloca_probe             10059ba0     msvcrt:chkstk.obj
 0001:00058ba0       __chkstk                   10059ba0 f   msvcrt:chkstk.obj
 0001:00058c0e       @__security_check_cookie@4 10059c0e f   msvcrt:secchk.obj
 0001:00058c1c       ___CxxFrameHandler         10059c1c f   msvcrt:MSVCR71.dll
 0001:00058c22       ??_Etype_info@@UAEPAXI@Z   10059c22 f i msvcrt:ti_inst.obj
 0001:00058c6e       __CxxThrowException@8      10059c6e f   msvcrt:MSVCR71.dll
 0001:00058c74       ??0exception@@QAE@ABV0@@Z  10059c74 f   msvcrt:MSVCR71.dll
 0001:00058c7a       __onexit                   10059c7a f   msvcrt:atonexit.obj
 0001:00058ca0       _atexit                    10059ca0 f   msvcrt:atonexit.obj
 0001:00058cb2       ?__ArrayUnwind@@YGXPAXIHP6EX0@Z@Z 10059cb2 f   msvcrt:ehvecdtr.obj
 0001:00058d10       ??_M@YGXPAXIHP6EX0@Z@Z     10059d10 f   msvcrt:ehvecdtr.obj
 0001:00058d70       __purecall                 10059d70 f   msvcrt:MSVCR71.dll
 0001:00058d78       __ftol2                    10059d78 f   msvcrt:ftol2.obj
 0001:00058ded       __CRT_INIT@12              10059ded f   msvcrt:crtdll.obj
 0001:00058eab       __DllMainCRTStartup@12     10059eab f   msvcrt:crtdll.obj
 0001:00058f90       __EH_prolog                10059f90 f   msvcrt:ehprolog.obj
 0001:00058fb0       __SEH_prolog               10059fb0 f   msvcrt:sehprolg.obj
 0001:00058feb       __SEH_epilog               10059feb f   msvcrt:sehprolg.obj
 0001:00058ffc       _memset                    10059ffc f   msvcrt:MSVCR71.dll
 0001:00059002       ___security_init_cookie    1005a002 f   msvcrt:seccinit.obj
 0001:00059068       ___security_error_handler  1005a068 f   msvcrt:MSVCR71.dll
 0001:0005906e       ??1type_info@@UAE@XZ       1005a06e f   msvcrt:MSVCR71.dll
 0001:00059074       ___dllonexit               1005a074 f   msvcrt:MSVCR71.dll
 0001:0005907a       ?terminate@@YAXXZ          1005a07a f   msvcrt:MSVCR71.dll
 0001:00059080       __initterm                 1005a080 f   msvcrt:MSVCR71.dll
 0001:00059086       __RTC_Initialize           1005a086 f   msvcrt:initsect.obj
 0001:000590ca       __RTC_Terminate            1005a0ca f   msvcrt:initsect.obj
 0001:0005910e       ___CppXcptFilter           1005a10e f   msvcrt:MSVCR71.dll
 0001:00059114       ___WSAFDIsSet@8            1005a114 f   ws2_32:WS2_32.dll
 0001:00059120       ?_com_issue_error@@YGXJ@Z  1005a120 f   comsuppw:comsupp.obj
 0001:00059130       ?_com_raise_error@@YGXJPAUIErrorInfo@@@Z 1005a130 f   comsuppw:comraise.obj
 0001:00059170       ??0_com_error@@QAE@ABV0@@Z 1005a170 f i comsuppw:comraise.obj
 0001:000591b0       ??1_com_error@@UAE@XZ      1005a1b0 f i comsuppw:comraise.obj
 0001:000591e0       ??_E_com_error@@UAEPAXI@Z  1005a1e0 f i comsuppw:comraise.obj
 0001:000591e0       ??_G_com_error@@UAEPAXI@Z  1005a1e0 f i comsuppw:comraise.obj
 0001:0005921a       ?RemoveAll@?$CSimpleArray@PAUHINSTANCE__@@V?$CSimpleArrayEqualHelper@PAUHINSTANCE__@@@ATL@@@ATL@@QAEXXZ 1005a21a f i atls:atlbase.obj
 0001:00059237       ??0_ATL_BASE_MODULE70@ATL@@QAE@XZ 1005a237 f i atls:atlbase.obj
 0001:00059251       ??1CAtlBaseModule@ATL@@QAE@XZ 1005a251 f   atls:atlbase.obj
 0001:00059267       ??0CAtlBaseModule@ATL@@QAE@XZ 1005a267 f   atls:atlbase.obj
 0001:00059312       ??1AFX_MODULE_STATE@@UAE@XZ 1005a312 f   mfc71:MFC71.DLL
 0001:00059318       ?AfxSetModuleState@@YGPAVAFX_MODULE_STATE@@PAV1@@Z 1005a318 f   mfc71:MFC71.DLL
 0001:0005931e       ?AfxGetThreadState@@YGPAV_AFX_THREAD_STATE@@XZ 1005a31e f   mfc71:MFC71.DLL
 0001:00059324       ?AfxGetModuleState@@YGPAVAFX_MODULE_STATE@@XZ 1005a324 f   mfc71:MFC71.DLL
 0001:0005932a       ?AfxWndProc@@YGJPAUHWND__@@IIJ@Z 1005a32a f   mfc71:MFC71.DLL
 0001:00059330       ?AfxTermThread@@YGXPAUHINSTANCE__@@@Z 1005a330 f   mfc71:MFC71.DLL
 0001:00059336       ?AfxTermExtensionModule@@YGXAAUAFX_EXTENSION_MODULE@@H@Z 1005a336 f   mfc71:MFC71.DLL
 0001:0005933c       ?AfxUnlockTempMaps@@YGHH@Z 1005a33c f   mfc71:MFC71.DLL
 0001:00059342       ?AfxLockTempMaps@@YGXXZ    1005a342 f   mfc71:MFC71.DLL
 0001:00059348       ??0CDynLinkLibrary@@QAE@AAUAFX_EXTENSION_MODULE@@H@Z 1005a348 f   mfc71:MFC71.DLL
 0001:0005934e       ?AfxInitExtensionModule@@YGHAAUAFX_EXTENSION_MODULE@@PAUHINSTANCE__@@@Z 1005a34e f   mfc71:MFC71.DLL
 0001:00059354       ?AfxWinTerm@@YGXXZ         1005a354 f   mfc71:MFC71.DLL
 0001:0005935a       ?AfxWinInit@@YGHPAUHINSTANCE__@@0PADH@Z 1005a35a f   mfc71:MFC71.DLL
 0001:00059360       ?AfxCoreInitModule@@YGXXZ  1005a360 f   mfc71:MFC71.DLL
 0001:00059366       ??0AFX_MODULE_STATE@@QAE@HP6GJPAUHWND__@@IIJ@ZKH@Z 1005a366 f   mfc71:MFC71.DLL
 0001:0005936c       ??3CNoTrackObject@@SGXPAX@Z 1005a36c f   mfc71:MFC71.DLL
 0002:00000000       __imp__RegCloseKey@4       1005f000     advapi32:ADVAPI32.dll
 0002:00000004       __imp__RegOpenKeyExA@20    1005f004     advapi32:ADVAPI32.dll
 0002:00000008       __imp__RegEnumValueA@32    1005f008     advapi32:ADVAPI32.dll
 0002:0000000c       \177ADVAPI32_NULL_THUNK_DATA 1005f00c     advapi32:ADVAPI32.dll
 0002:00000010       __imp__InterlockedExchange@8 1005f010     kernel32:KERNEL32.dll
 0002:00000014       __imp__GetACP@0            1005f014     kernel32:KERNEL32.dll
 0002:00000018       __imp__GetLocaleInfoA@16   1005f018     kernel32:KERNEL32.dll
 0002:0000001c       __imp__GetThreadLocale@0   1005f01c     kernel32:KERNEL32.dll
 0002:00000020       __imp__GetVersionExA@4     1005f020     kernel32:KERNEL32.dll
 0002:00000024       __imp__QueryPerformanceCounter@4 1005f024     kernel32:KERNEL32.dll
 0002:00000028       __imp__GetSystemTimeAsFileTime@4 1005f028     kernel32:KERNEL32.dll
 0002:0000002c       __imp__CreateProcessA@40   1005f02c     kernel32:KERNEL32.dll
 0002:00000030       __imp__CreatePipe@16       1005f030     kernel32:KERNEL32.dll
 0002:00000034       __imp__TerminateProcess@8  1005f034     kernel32:KERNEL32.dll
 0002:00000038       __imp__ReadFile@20         1005f038     kernel32:KERNEL32.dll
 0002:0000003c       __imp__lstrcpyA@8          1005f03c     kernel32:KERNEL32.dll
 0002:00000040       __imp__OpenProcess@12      1005f040     kernel32:KERNEL32.dll
 0002:00000044       __imp__GetStdHandle@4      1005f044     kernel32:KERNEL32.dll
 0002:00000048       __imp__LocalFree@4         1005f048     kernel32:KERNEL32.dll
 0002:0000004c       __imp__lstrlenA@4          1005f04c     kernel32:KERNEL32.dll
 0002:00000050       __imp__LocalAlloc@8        1005f050     kernel32:KERNEL32.dll
 0002:00000054       __imp__WritePrivateProfileStringA@16 1005f054     kernel32:KERNEL32.dll
 0002:00000058       __imp__GetPrivateProfileIntA@16 1005f058     kernel32:KERNEL32.dll
 0002:0000005c       __imp__GetTickCount@0      1005f05c     kernel32:KERNEL32.dll
 0002:00000060       __imp__FreeLibrary@4       1005f060     kernel32:KERNEL32.dll
 0002:00000064       __imp__GetProcAddress@8    1005f064     kernel32:KERNEL32.dll
 0002:00000068       __imp__LoadLibraryA@4      1005f068     kernel32:KERNEL32.dll
 0002:0000006c       __imp__GetPrivateProfileStringA@24 1005f06c     kernel32:KERNEL32.dll
 0002:00000070       __imp__GetLocalTime@4      1005f070     kernel32:KERNEL32.dll
 0002:00000074       __imp__ExitProcess@4       1005f074     kernel32:KERNEL32.dll
 0002:00000078       __imp__Sleep@4             1005f078     kernel32:KERNEL32.dll
 0002:0000007c       __imp__GetCurrentThreadId@0 1005f07c     kernel32:KERNEL32.dll
 0002:00000080       __imp__InitializeCriticalSection@4 1005f080     kernel32:KERNEL32.dll
 0002:00000084       __imp__DeleteCriticalSection@4 1005f084     kernel32:KERNEL32.dll
 0002:00000088       __imp__EnterCriticalSection@4 1005f088     kernel32:KERNEL32.dll
 0002:0000008c       __imp__LeaveCriticalSection@4 1005f08c     kernel32:KERNEL32.dll
 0002:00000090       __imp__OutputDebugStringA@4 1005f090     kernel32:KERNEL32.dll
 0002:00000094       __imp__GetCurrentProcessId@0 1005f094     kernel32:KERNEL32.dll
 0002:00000098       __imp__CloseHandle@4       1005f098     kernel32:KERNEL32.dll
 0002:0000009c       __imp__CreateFileA@28      1005f09c     kernel32:KERNEL32.dll
 0002:000000a0       __imp__WaitForSingleObject@8 1005f0a0     kernel32:KERNEL32.dll
 0002:000000a4       \177KERNEL32_NULL_THUNK_DATA 1005f0a4     kernel32:KERNEL32.dll
 0002:000000a8       __imp_?Find@?$CStringT@DV?$StrTraitMFC_DLL@DV?$ChTraitsCRT@D@ATL@@@@@ATL@@QBEHPBDH@Z 1005f0a8     mfc71:MFC71.DLL
 0002:000000ac       __imp_?GetAt@?$CSimpleStringT@D$00@ATL@@QBEDH@Z 1005f0ac     mfc71:MFC71.DLL
 0002:000000b0       __imp_?SpanExcluding@?$CStringT@DV?$StrTraitMFC_DLL@DV?$ChTraitsCRT@D@ATL@@@@@ATL@@QBE?AV12@PBD@Z 1005f0b0     mfc71:MFC71.DLL
 0002:000000b4       __imp_?Close@CDatabase@@UAEXXZ 1005f0b4     mfc71:MFC71.DLL
 0002:000000b8       __imp_?Delete@CException@@QAEXXZ 1005f0b8     mfc71:MFC71.DLL
 0002:000000bc       __imp_?GetBuffer@?$CSimpleStringT@D$00@ATL@@QAEPADH@Z 1005f0bc     mfc71:MFC71.DLL
 0002:000000c0       __imp_?Replace@?$CStringT@DV?$StrTraitMFC_DLL@DV?$ChTraitsCRT@D@ATL@@@@@ATL@@QAEHPBD0@Z 1005f0c0     mfc71:MFC71.DLL
 0002:000000c4       __imp_?GetFieldValue@CRecordset@@QAEXFAAV?$CStringT@DV?$StrTraitMFC_DLL@DV?$ChTraitsCRT@D@ATL@@@@@ATL@@@Z 1005f0c4     mfc71:MFC71.DLL
 0002:000000c8       __imp_??0CRecordset@@QAE@PAVCDatabase@@@Z 1005f0c8     mfc71:MFC71.DLL
 0002:000000cc       __imp_??1CDatabase@@UAE@XZ 1005f0cc     mfc71:MFC71.DLL
 0002:000000d0       __imp_?OpenEx@CDatabase@@UAEHPBDK@Z 1005f0d0     mfc71:MFC71.DLL
 0002:000000d4       __imp_??0CDatabase@@QAE@XZ 1005f0d4     mfc71:MFC71.DLL
 0002:000000d8       __imp_?FindIndex@CStringList@@QBEPAU__POSITION@@H@Z 1005f0d8     mfc71:MFC71.DLL
 0002:000000dc       __imp_?Replace@?$CStringT@DV?$StrTraitMFC_DLL@DV?$ChTraitsCRT@D@ATL@@@@@ATL@@QAEHDD@Z 1005f0dc     mfc71:MFC71.DLL
 0002:000000e0       __imp_?AddTail@CStringList@@QAEPAU__POSITION@@ABV?$CStringT@DV?$StrTraitMFC_DLL@DV?$ChTraitsCRT@D@ATL@@@@@ATL@@@Z 1005f0e0     mfc71:MFC71.DLL
 0002:000000e4       __imp_?AddHead@CStringList@@QAEPAU__POSITION@@PBD@Z 1005f0e4     mfc71:MFC71.DLL
 0002:000000e8       __imp_?RemoveAll@CStringList@@QAEXXZ 1005f0e8     mfc71:MFC71.DLL
 0002:000000ec       __imp_?Insert@?$CStringT@DV?$StrTraitMFC_DLL@DV?$ChTraitsCRT@D@ATL@@@@@ATL@@QAEHHD@Z 1005f0ec     mfc71:MFC71.DLL
 0002:000000f0       __imp_?QueryInfoStatusCode@CHttpFile@@QBEHAAK@Z 1005f0f0     mfc71:MFC71.DLL
 0002:000000f4       __imp_?SendRequest@CHttpFile@@QAEHPBDKPAXK@Z 1005f0f4     mfc71:MFC71.DLL
 0002:000000f8       __imp_?AddRequestHeaders@CHttpFile@@QAEHAAV?$CStringT@DV?$StrTraitMFC_DLL@DV?$ChTraitsCRT@D@ATL@@@@@ATL@@K@Z 1005f0f8     mfc71:MFC71.DLL
 0002:000000fc       __imp_?Insert@?$CStringT@DV?$StrTraitMFC_DLL@DV?$ChTraitsCRT@D@ATL@@@@@ATL@@QAEHHPBD@Z 1005f0fc     mfc71:MFC71.DLL
 0002:00000100       __imp_?OpenRequest@CHttpConnection@@QAEPAVCHttpFile@@HPBD0KPAPBD0K@Z 1005f100     mfc71:MFC71.DLL
 0002:00000104       __imp_?GetHttpConnection@CInternetSession@@QAEPAVCHttpConnection@@PBDG00@Z 1005f104     mfc71:MFC71.DLL
 0002:00000108       __imp_?AfxParseURL@@YGHPBDAAKAAV?$CStringT@DV?$StrTraitMFC_DLL@DV?$ChTraitsCRT@D@ATL@@@@@ATL@@2AAG@Z 1005f108     mfc71:MFC71.DLL
 0002:0000010c       __imp_??0CInternetSession@@QAE@PBDKK00K@Z 1005f10c     mfc71:MFC71.DLL
 0002:00000110       __imp_?GetErrorMessage@CFileException@@UAEHPADIPAI@Z 1005f110     mfc71:MFC71.DLL
 0002:00000114       __imp_?GetRuntimeClass@CFileException@@UBEPAUCRuntimeClass@@XZ 1005f114     mfc71:MFC71.DLL
 0002:00000118       __imp_??0CException@@QAE@XZ 1005f118     mfc71:MFC71.DLL
 0002:0000011c       __imp_?GetConnectionHook@CCmdTarget@@MAEPAUIConnectionPoint@@ABU_GUID@@@Z 1005f11c     mfc71:MFC71.DLL
 0002:00000120       __imp_?GetExtraConnectionPoints@CCmdTarget@@MAEHPAVCPtrArray@@@Z 1005f120     mfc71:MFC71.DLL
 0002:00000124       __imp_?GetInterfaceHook@CCmdTarget@@UAEPAUIUnknown@@PBX@Z 1005f124     mfc71:MFC71.DLL
 0002:00000128       __imp_?OnCreateAggregates@CCmdTarget@@UAEHXZ 1005f128     mfc71:MFC71.DLL
 0002:0000012c       __imp_?GetEventSinkMap@CCmdTarget@@MBEPBUAFX_EVENTSINKMAP@@XZ 1005f12c     mfc71:MFC71.DLL
 0002:00000130       __imp_?GetConnectionMap@CCmdTarget@@MBEPBUAFX_CONNECTIONMAP@@XZ 1005f130     mfc71:MFC71.DLL
 0002:00000134       __imp_?GetCommandMap@CCmdTarget@@MBEPBUAFX_OLECMDMAP@@XZ 1005f134     mfc71:MFC71.DLL
 0002:00000138       __imp_?GetTypeLib@CCmdTarget@@UAEJKPAPAUITypeLib@@@Z 1005f138     mfc71:MFC71.DLL
 0002:0000013c       __imp_?Right@?$CStringT@DV?$StrTraitMFC_DLL@DV?$ChTraitsCRT@D@ATL@@@@@ATL@@QBE?AV12@H@Z 1005f13c     mfc71:MFC71.DLL
 0002:00000140       __imp_?GetTypeInfoCount@CCmdTarget@@UAEIXZ 1005f140     mfc71:MFC71.DLL
 0002:00000144       __imp_?GetDispatchIID@CCmdTarget@@UAEHPAU_GUID@@@Z 1005f144     mfc71:MFC71.DLL
 0002:00000148       __imp_?IsInvokeAllowed@CCmdTarget@@UAEHJ@Z 1005f148     mfc71:MFC71.DLL
 0002:0000014c       __imp_?OnCmdMsg@CCmdTarget@@UAEHIHPAXPAUAFX_CMDHANDLERINFO@@@Z 1005f14c     mfc71:MFC71.DLL
 0002:00000150       __imp_?OnFinalRelease@CCmdTarget@@UAEXXZ 1005f150     mfc71:MFC71.DLL
 0002:00000154       __imp_?MakeLower@?$CStringT@DV?$StrTraitMFC_DLL@DV?$ChTraitsCRT@D@ATL@@@@@ATL@@QAEAAV12@XZ 1005f154     mfc71:MFC71.DLL
 0002:00000158       __imp_??1CStringList@@UAE@XZ 1005f158     mfc71:MFC71.DLL
 0002:0000015c       __imp_??0CStringList@@QAE@H@Z 1005f15c     mfc71:MFC71.DLL
 0002:00000160       __imp_?ReadCount@CArchive@@QAEKXZ 1005f160     mfc71:MFC71.DLL
 0002:00000164       __imp_?WriteCount@CArchive@@QAEXK@Z 1005f164     mfc71:MFC71.DLL
 0002:00000168       __imp_?Read@CArchive@@QAEIPAXI@Z 1005f168     mfc71:MFC71.DLL
 0002:0000016c       __imp_?Write@CArchive@@QAEXPBXI@Z 1005f16c     mfc71:MFC71.DLL
 0002:00000170       __imp_?GetRuntimeClass@CCriticalSection@@UBEPAUCRuntimeClass@@XZ 1005f170     mfc71:MFC71.DLL
 0002:00000174       __imp_??1CSyncObject@@UAE@XZ 1005f174     mfc71:MFC71.DLL
 0002:00000178       __imp_??0CSyncObject@@QAE@PBD@Z 1005f178     mfc71:MFC71.DLL
 0002:0000017c       __imp_?Create@CPlex@@SGPAU1@AAPAU1@II@Z 1005f17c     mfc71:MFC71.DLL
 0002:00000180       __imp_?FreeDataChain@CPlex@@QAEXXZ 1005f180     mfc71:MFC71.DLL
 0002:00000184       __imp_?TrimRight@?$CStringT@DV?$StrTraitMFC_DLL@DV?$ChTraitsCRT@D@ATL@@@@@ATL@@QAEAAV12@XZ 1005f184     mfc71:MFC71.DLL
 0002:00000188       __imp_?GetThisMessageMap@CWinApp@@KGPBUAFX_MSGMAP@@XZ 1005f188     mfc71:MFC71.DLL
 0002:0000018c       __imp_?LoadSysPolicies@CWinApp@@UAEHXZ 1005f18c     mfc71:MFC71.DLL
 0002:00000190       __imp_?LoadAppLangResourceDLL@CWinApp@@UAEPAUHINSTANCE__@@XZ 1005f190     mfc71:MFC71.DLL
 0002:00000194       __imp_?WinHelpInternal@CWinApp@@UAEXKI@Z 1005f194     mfc71:MFC71.DLL
 0002:00000198       __imp_?HtmlHelpA@CWinApp@@UAEXKI@Z 1005f198     mfc71:MFC71.DLL
 0002:0000019c       __imp_?WinHelpA@CWinApp@@UAEXKI@Z 1005f19c     mfc71:MFC71.DLL
 0002:000001a0       __imp_?OnDDECommand@CWinApp@@UAEHPAD@Z 1005f1a0     mfc71:MFC71.DLL
 0002:000001a4       __imp_?DoWaitCursor@CWinApp@@UAEXH@Z 1005f1a4     mfc71:MFC71.DLL
 0002:000001a8       __imp_?DoMessageBox@CWinApp@@UAEHPBDII@Z 1005f1a8     mfc71:MFC71.DLL
 0002:000001ac       __imp_?SaveAllModified@CWinApp@@UAEHXZ 1005f1ac     mfc71:MFC71.DLL
 0002:000001b0       __imp_?InitApplication@CWinApp@@UAEHXZ 1005f1b0     mfc71:MFC71.DLL
 0002:000001b4       __imp_?AddToRecentFileList@CWinApp@@UAEXPBD@Z 1005f1b4     mfc71:MFC71.DLL
 0002:000001b8       __imp_?OpenDocumentFile@CWinApp@@UAEPAVCDocument@@PBD@Z 1005f1b8     mfc71:MFC71.DLL
 0002:000001bc       __imp_?Unregister@CWinApp@@UAEHXZ 1005f1bc     mfc71:MFC71.DLL
 0002:000001c0       __imp_?Register@CWinApp@@UAEHXZ 1005f1c0     mfc71:MFC71.DLL
 0002:000001c4       __imp_?InitLibId@CWinApp@@UAEXXZ 1005f1c4     mfc71:MFC71.DLL
 0002:000001c8       __imp_?Delete@CWinThread@@UAEXXZ 1005f1c8     mfc71:MFC71.DLL
 0002:000001cc       __imp_?GetMainWnd@CWinThread@@UAEPAVCWnd@@XZ 1005f1cc     mfc71:MFC71.DLL
 0002:000001d0       __imp_?ProcessMessageFilter@CWinThread@@UAEHHPAUtagMSG@@@Z 1005f1d0     mfc71:MFC71.DLL
 0002:000001d4       __imp_?ProcessWndProcException@CWinApp@@UAEJPAVCException@@PBUtagMSG@@@Z 1005f1d4     mfc71:MFC71.DLL
 0002:000001d8       __imp_?ExitInstance@CWinApp@@UAEHXZ 1005f1d8     mfc71:MFC71.DLL
 0002:000001dc       __imp_?IsIdleMessage@CWinThread@@UAEHPAUtagMSG@@@Z 1005f1dc     mfc71:MFC71.DLL
 0002:000001e0       __imp_?OnIdle@CWinApp@@UAEHJ@Z 1005f1e0     mfc71:MFC71.DLL
 0002:000001e4       __imp_?PumpMessage@CWinThread@@UAEHXZ 1005f1e4     mfc71:MFC71.DLL
 0002:000001e8       __imp_?PreTranslateMessage@CWinThread@@UAEHPAUtagMSG@@@Z 1005f1e8     mfc71:MFC71.DLL
 0002:000001ec       __imp_?Run@CWinApp@@UAEHXZ 1005f1ec     mfc71:MFC71.DLL
 0002:000001f0       __imp_?InitInstance@CWinApp@@UAEHXZ 1005f1f0     mfc71:MFC71.DLL
 0002:000001f4       __imp_?GetInterfaceMap@CCmdTarget@@MBEPBUAFX_INTERFACEMAP@@XZ 1005f1f4     mfc71:MFC71.DLL
 0002:000001f8       __imp_?GetDispatchMap@CCmdTarget@@MBEPBUAFX_DISPMAP@@XZ 1005f1f8     mfc71:MFC71.DLL
 0002:000001fc       __imp_?GetRuntimeClass@CWinApp@@UBEPAUCRuntimeClass@@XZ 1005f1fc     mfc71:MFC71.DLL
 0002:00000200       __imp_??0CWinApp@@QAE@PBD@Z 1005f200     mfc71:MFC71.DLL
 0002:00000204       __imp_??1CWinApp@@UAE@XZ   1005f204     mfc71:MFC71.DLL
 0002:00000208       __imp_??0AFX_MAINTAIN_STATE2@@QAE@PAVAFX_MODULE_STATE@@@Z 1005f208     mfc71:MFC71.DLL
 0002:0000020c       __imp_?AddTail@CStringList@@QAEPAU__POSITION@@PBD@Z 1005f20c     mfc71:MFC71.DLL
 0002:00000210       __imp_?Mid@?$CStringT@DV?$StrTraitMFC_DLL@DV?$ChTraitsCRT@D@ATL@@@@@ATL@@QBE?AV12@H@Z 1005f210     mfc71:MFC71.DLL
 0002:00000214       __imp_?MakeReverse@?$CStringT@DV?$StrTraitMFC_DLL@DV?$ChTraitsCRT@D@ATL@@@@@ATL@@QAEAAV12@XZ 1005f214     mfc71:MFC71.DLL
 0002:00000218       __imp_?Close@CFile@@UAEXXZ 1005f218     mfc71:MFC71.DLL
 0002:0000021c       __imp_?GetLength@CFile@@UBE_KXZ 1005f21c     mfc71:MFC71.DLL
 0002:00000220       __imp_??1CFile@@UAE@XZ     1005f220     mfc71:MFC71.DLL
 0002:00000224       __imp_?Open@CFile@@UAEHPBDIPAVCFileException@@@Z 1005f224     mfc71:MFC71.DLL
 0002:00000228       __imp_??0CFile@@QAE@XZ     1005f228     mfc71:MFC71.DLL
 0002:0000022c       __imp_?GetFieldValue@CRecordset@@QAEXPBDAAV?$CStringT@DV?$StrTraitMFC_DLL@DV?$ChTraitsCRT@D@ATL@@@@@ATL@@@Z 1005f22c     mfc71:MFC71.DLL
 0002:00000230       __imp_?Compare@?$CStringT@DV?$StrTraitMFC_DLL@DV?$ChTraitsCRT@D@ATL@@@@@ATL@@QBEHPBD@Z 1005f230     mfc71:MFC71.DLL
 0002:00000234       __imp_?ReverseFind@?$CStringT@DV?$StrTraitMFC_DLL@DV?$ChTraitsCRT@D@ATL@@@@@ATL@@QBEHD@Z 1005f234     mfc71:MFC71.DLL
 0002:00000238       __imp_?Left@?$CStringT@DV?$StrTraitMFC_DLL@DV?$ChTraitsCRT@D@ATL@@@@@ATL@@QBE?AV12@H@Z 1005f238     mfc71:MFC71.DLL
 0002:0000023c       __imp_?Find@?$CStringT@DV?$StrTraitMFC_DLL@DV?$ChTraitsCRT@D@ATL@@@@@ATL@@QBEHDH@Z 1005f23c     mfc71:MFC71.DLL
 0002:00000240       __imp_?Delete@?$CStringT@DV?$StrTraitMFC_DLL@DV?$ChTraitsCRT@D@ATL@@@@@ATL@@QAEHHH@Z 1005f240     mfc71:MFC71.DLL
 0002:00000244       __imp_??A?$CSimpleStringT@D$00@ATL@@QBEDH@Z 1005f244     mfc71:MFC71.DLL
 0002:00000248       __imp_??Y?$CStringT@DV?$StrTraitMFC_DLL@DV?$ChTraitsCRT@D@ATL@@@@@ATL@@QAEAAV01@D@Z 1005f248     mfc71:MFC71.DLL
 0002:0000024c       __imp_??Y?$CStringT@DV?$StrTraitMFC_DLL@DV?$ChTraitsCRT@D@ATL@@@@@ATL@@QAEAAV01@PBD@Z 1005f24c     mfc71:MFC71.DLL
 0002:00000250       __imp_??Y?$CStringT@DV?$StrTraitMFC_DLL@DV?$ChTraitsCRT@D@ATL@@@@@ATL@@QAEAAV01@ABV?$CSimpleStringT@D$00@1@@Z 1005f250     mfc71:MFC71.DLL
 0002:00000254       __imp_?TrimLeft@?$CStringT@DV?$StrTraitMFC_DLL@DV?$ChTraitsCRT@D@ATL@@@@@ATL@@QAEAAV12@XZ 1005f254     mfc71:MFC71.DLL
 0002:00000258       __imp_?Mid@?$CStringT@DV?$StrTraitMFC_DLL@DV?$ChTraitsCRT@D@ATL@@@@@ATL@@QBE?AV12@HH@Z 1005f258     mfc71:MFC71.DLL
 0002:0000025c       __imp_?CompareNoCase@?$CStringT@DV?$StrTraitMFC_DLL@DV?$ChTraitsCRT@D@ATL@@@@@ATL@@QBEHPBD@Z 1005f25c     mfc71:MFC71.DLL
 0002:00000260       __imp_?GetManager@?$CSimpleStringT@D$00@ATL@@QBEPAUIAtlStringMgr@2@XZ 1005f260     mfc71:MFC71.DLL
 0002:00000264       __imp_??0?$CStringT@DV?$StrTraitMFC_DLL@DV?$ChTraitsCRT@D@ATL@@@@@ATL@@QAE@PAUIAtlStringMgr@1@@Z 1005f264     mfc71:MFC71.DLL
 0002:00000268       __imp_?Concatenate@?$CSimpleStringT@D$00@ATL@@KAXAAV12@PBDH1H@Z 1005f268     mfc71:MFC71.DLL
 0002:0000026c       __imp_??4?$CStringT@DV?$StrTraitMFC_DLL@DV?$ChTraitsCRT@D@ATL@@@@@ATL@@QAEAAV01@ABV01@@Z 1005f26c     mfc71:MFC71.DLL
 0002:00000270       __imp_?ReportError@CException@@UAEHII@Z 1005f270     mfc71:MFC71.DLL
 0002:00000274       __imp_??0?$CStringT@DV?$StrTraitMFC_DLL@DV?$ChTraitsCRT@D@ATL@@@@@ATL@@QAE@PBD@Z 1005f274     mfc71:MFC71.DLL
 0002:00000278       __imp_?LoadStringA@?$CStringT@DV?$StrTraitMFC_DLL@DV?$ChTraitsCRT@D@ATL@@@@@ATL@@QAEHI@Z 1005f278     mfc71:MFC71.DLL
 0002:0000027c       __imp_??0?$CStringT@DV?$StrTraitMFC_DLL@DV?$ChTraitsCRT@D@ATL@@@@@ATL@@QAE@ABV01@@Z 1005f27c     mfc71:MFC71.DLL
 0002:00000280       __imp_?GetBufferSetLength@?$CSimpleStringT@D$00@ATL@@QAEPADH@Z 1005f280     mfc71:MFC71.DLL
 0002:00000284       __imp_?ReleaseBuffer@?$CSimpleStringT@D$00@ATL@@QAEXH@Z 1005f284     mfc71:MFC71.DLL
 0002:00000288       __imp_?Format@?$CStringT@DV?$StrTraitMFC_DLL@DV?$ChTraitsCRT@D@ATL@@@@@ATL@@QAAXPBDZZ 1005f288     mfc71:MFC71.DLL
 0002:0000028c       __imp_??0?$CStringT@DV?$StrTraitMFC_DLL@DV?$ChTraitsCRT@D@ATL@@@@@ATL@@QAE@XZ 1005f28c     mfc71:MFC71.DLL
 0002:00000290       __imp_??4?$CStringT@DV?$StrTraitMFC_DLL@DV?$ChTraitsCRT@D@ATL@@@@@ATL@@QAEAAV01@PBD@Z 1005f290     mfc71:MFC71.DLL
 0002:00000294       __imp_??1?$CStringT@DV?$StrTraitMFC_DLL@DV?$ChTraitsCRT@D@ATL@@@@@ATL@@QAE@XZ 1005f294     mfc71:MFC71.DLL
 0002:00000298       __imp_?GetRuntimeClass@CObject@@UBEPAUCRuntimeClass@@XZ 1005f298     mfc71:MFC71.DLL
 0002:0000029c       __imp_??2@YAPAXI@Z         1005f29c     mfc71:MFC71.DLL
 0002:000002a0       __imp_??3@YAXPAX@Z         1005f2a0     mfc71:MFC71.DLL
 0002:000002a4       __imp_?AfxThrowInvalidArgException@@YGXXZ 1005f2a4     mfc71:MFC71.DLL
 0002:000002a8       __imp_?AfxThrowMemoryException@@YGXXZ 1005f2a8     mfc71:MFC71.DLL
 0002:000002ac       __imp_??1AFX_MODULE_STATE@@UAE@XZ 1005f2ac     mfc71:MFC71.DLL
 0002:000002b0       __imp_?AfxSetModuleState@@YGPAVAFX_MODULE_STATE@@PAV1@@Z 1005f2b0     mfc71:MFC71.DLL
 0002:000002b4       __imp_?AfxGetThreadState@@YGPAV_AFX_THREAD_STATE@@XZ 1005f2b4     mfc71:MFC71.DLL
 0002:000002b8       __imp_?AfxGetModuleState@@YGPAVAFX_MODULE_STATE@@XZ 1005f2b8     mfc71:MFC71.DLL
 0002:000002bc       __imp_?AfxWndProc@@YGJPAUHWND__@@IIJ@Z 1005f2bc     mfc71:MFC71.DLL
 0002:000002c0       __imp_?AfxTermThread@@YGXPAUHINSTANCE__@@@Z 1005f2c0     mfc71:MFC71.DLL
 0002:000002c4       __imp_?AfxTermExtensionModule@@YGXAAUAFX_EXTENSION_MODULE@@H@Z 1005f2c4     mfc71:MFC71.DLL
 0002:000002c8       __imp_?AfxUnlockTempMaps@@YGHH@Z 1005f2c8     mfc71:MFC71.DLL
 0002:000002cc       __imp_?AfxLockTempMaps@@YGXXZ 1005f2cc     mfc71:MFC71.DLL
 0002:000002d0       __imp_??0CDynLinkLibrary@@QAE@AAUAFX_EXTENSION_MODULE@@H@Z 1005f2d0     mfc71:MFC71.DLL
 0002:000002d4       __imp_?AfxInitExtensionModule@@YGHAAUAFX_EXTENSION_MODULE@@PAUHINSTANCE__@@@Z 1005f2d4     mfc71:MFC71.DLL
 0002:000002d8       __imp_?AfxWinTerm@@YGXXZ   1005f2d8     mfc71:MFC71.DLL
 0002:000002dc       __imp_?AfxWinInit@@YGHPAUHINSTANCE__@@0PADH@Z 1005f2dc     mfc71:MFC71.DLL
 0002:000002e0       __imp_?AfxCoreInitModule@@YGXXZ 1005f2e0     mfc71:MFC71.DLL
 0002:000002e4       __imp_??0AFX_MODULE_STATE@@QAE@HP6GJPAUHWND__@@IIJ@ZKH@Z 1005f2e4     mfc71:MFC71.DLL
 0002:000002e8       __imp_??3CNoTrackObject@@SGXPAX@Z 1005f2e8     mfc71:MFC71.DLL
 0002:000002ec       __imp_?GetTypeLibCache@CCmdTarget@@UAEPAVCTypeLibCache@@XZ 1005f2ec     mfc71:MFC71.DLL
 0002:000002f0       \177MFC71_NULL_THUNK_DATA  1005f2f0     mfc71:MFC71.DLL
 0002:000002f4       __imp_?cout@std@@3V?$basic_ostream@DU?$char_traits@D@std@@@1@A 1005f2f4     msvcprt:MSVCP71.dll
 0002:000002f8       __imp_??$?6U?$char_traits@D@std@@@std@@YAAAV?$basic_ostream@DU?$char_traits@D@std@@@0@AAV10@PBD@Z 1005f2f8     msvcprt:MSVCP71.dll
 0002:000002fc       __imp_??6?$basic_ostream@DU?$char_traits@D@std@@@std@@QAEAAV01@P6AAAV01@AAV01@@Z@Z 1005f2fc     msvcprt:MSVCP71.dll
 0002:00000300       __imp_??0?$basic_string@DU?$char_traits@D@std@@V?$allocator@D@2@@std@@QAE@XZ 1005f300     msvcprt:MSVCP71.dll
 0002:00000304       __imp_??4?$basic_string@DU?$char_traits@D@std@@V?$allocator@D@2@@std@@QAEAAV01@PBD@Z 1005f304     msvcprt:MSVCP71.dll
 0002:00000308       __imp_??$?8DU?$char_traits@D@std@@V?$allocator@D@1@@std@@YA_NABV?$basic_string@DU?$char_traits@D@std@@V?$allocator@D@2@@0@PBD@Z 1005f308     msvcprt:MSVCP71.dll
 0002:0000030c       __imp_??1?$basic_string@DU?$char_traits@D@std@@V?$allocator@D@2@@std@@QAE@XZ 1005f30c     msvcprt:MSVCP71.dll
 0002:00000310       __imp_??Y?$basic_string@DU?$char_traits@D@std@@V?$allocator@D@2@@std@@QAEAAV01@PBD@Z 1005f310     msvcprt:MSVCP71.dll
 0002:00000314       __imp_?endl@std@@YAAAV?$basic_ostream@DU?$char_traits@D@std@@@1@AAV21@@Z 1005f314     msvcprt:MSVCP71.dll
 0002:00000318       __imp_??0?$basic_string@DU?$char_traits@D@std@@V?$allocator@D@2@@std@@QAE@ABV01@@Z 1005f318     msvcprt:MSVCP71.dll
 0002:0000031c       __imp_??0?$basic_string@DU?$char_traits@D@std@@V?$allocator@D@2@@std@@QAE@PBD@Z 1005f31c     msvcprt:MSVCP71.dll
 0002:00000320       \177MSVCP71_NULL_THUNK_DATA 1005f320     msvcprt:MSVCP71.dll
 0002:00000324       __imp____CppXcptFilter     1005f324     msvcrt:MSVCR71.dll
 0002:00000328       __imp___adjust_fdiv        1005f328     msvcrt:MSVCR71.dll
 0002:0000032c       __imp___initterm           1005f32c     msvcrt:MSVCR71.dll
 0002:00000330       __imp_?terminate@@YAXXZ    1005f330     msvcrt:MSVCR71.dll
 0002:00000334       __imp___onexit             1005f334     msvcrt:MSVCR71.dll
 0002:00000338       __imp____dllonexit         1005f338     msvcrt:MSVCR71.dll
 0002:0000033c       __imp_??1type_info@@UAE@XZ 1005f33c     msvcrt:MSVCR71.dll
 0002:00000340       __imp____security_error_handler 1005f340     msvcrt:MSVCR71.dll
 0002:00000344       __imp__memset              1005f344     msvcrt:MSVCR71.dll
 0002:00000348       __imp___dup                1005f348     msvcrt:MSVCR71.dll
 0002:0000034c       __imp___iob                1005f34c     msvcrt:MSVCR71.dll
 0002:00000350       __imp___dup2               1005f350     msvcrt:MSVCR71.dll
 0002:00000354       __imp__fgets               1005f354     msvcrt:MSVCR71.dll
 0002:00000358       __imp___itoa               1005f358     msvcrt:MSVCR71.dll
 0002:00000358       __imp__itoa                1005f358     msvcrt:MSVCR71.dll
 0002:0000035c       __imp___strdup             1005f35c     msvcrt:MSVCR71.dll
 0002:00000360       __imp__system              1005f360     msvcrt:MSVCR71.dll
 0002:00000364       __imp___errno              1005f364     msvcrt:MSVCR71.dll
 0002:00000368       __imp__fputs               1005f368     msvcrt:MSVCR71.dll
 0002:0000036c       __imp__realloc             1005f36c     msvcrt:MSVCR71.dll
 0002:00000370       __imp_??0exception@@QAE@XZ 1005f370     msvcrt:MSVCR71.dll
 0002:00000374       __imp_??1exception@@UAE@XZ 1005f374     msvcrt:MSVCR71.dll
 0002:00000378       __imp___purecall           1005f378     msvcrt:MSVCR71.dll
 0002:0000037c       __imp__localtime           1005f37c     msvcrt:MSVCR71.dll
 0002:00000380       __imp__puts                1005f380     msvcrt:MSVCR71.dll
 0002:00000384       __imp__strncat             1005f384     msvcrt:MSVCR71.dll
 0002:00000388       __imp__isdigit             1005f388     msvcrt:MSVCR71.dll
 0002:0000038c       __imp__time                1005f38c     msvcrt:MSVCR71.dll
 0002:00000390       __imp__srand               1005f390     msvcrt:MSVCR71.dll
 0002:00000394       __imp__rand                1005f394     msvcrt:MSVCR71.dll
 0002:00000398       __imp___access             1005f398     msvcrt:MSVCR71.dll
 0002:0000039c       __imp__fwrite              1005f39c     msvcrt:MSVCR71.dll
 0002:000003a0       __imp__fread               1005f3a0     msvcrt:MSVCR71.dll
 0002:000003a4       __imp__atol                1005f3a4     msvcrt:MSVCR71.dll
 0002:000003a8       __imp__atof                1005f3a8     msvcrt:MSVCR71.dll
 0002:000003ac       __imp__atoi                1005f3ac     msvcrt:MSVCR71.dll
 0002:000003b0       __imp__strchr              1005f3b0     msvcrt:MSVCR71.dll
 0002:000003b4       __imp__strncpy             1005f3b4     msvcrt:MSVCR71.dll
 0002:000003b8       __imp__printf              1005f3b8     msvcrt:MSVCR71.dll
 0002:000003bc       __imp__strstr              1005f3bc     msvcrt:MSVCR71.dll
 0002:000003c0       __imp__fopen               1005f3c0     msvcrt:MSVCR71.dll
 0002:000003c4       __imp__fprintf             1005f3c4     msvcrt:MSVCR71.dll
 0002:000003c8       __imp__fclose              1005f3c8     msvcrt:MSVCR71.dll
 0002:000003cc       __imp__ltoa                1005f3cc     msvcrt:MSVCR71.dll
 0002:000003cc       __imp___ltoa               1005f3cc     msvcrt:MSVCR71.dll
 0002:000003d0       __imp___time64             1005f3d0     msvcrt:MSVCR71.dll
 0002:000003d4       __imp_??0exception@@QAE@ABV0@@Z 1005f3d4     msvcrt:MSVCR71.dll
 0002:000003d8       __imp__strncmp             1005f3d8     msvcrt:MSVCR71.dll
 0002:000003dc       __imp__sprintf             1005f3dc     msvcrt:MSVCR71.dll
 0002:000003e0       __imp___localtime64        1005f3e0     msvcrt:MSVCR71.dll
 0002:000003e4       __imp___CxxThrowException@8 1005f3e4     msvcrt:MSVCR71.dll
 0002:000003e8       __imp__strftime            1005f3e8     msvcrt:MSVCR71.dll
 0002:000003ec       __imp__sscanf              1005f3ec     msvcrt:MSVCR71.dll
 0002:000003f0       __imp___except_handler3    1005f3f0     msvcrt:MSVCR71.dll
 0002:000003f4       __imp__free                1005f3f4     msvcrt:MSVCR71.dll
 0002:000003f8       __imp__malloc              1005f3f8     msvcrt:MSVCR71.dll
 0002:000003fc       __imp____CxxFrameHandler   1005f3fc     msvcrt:MSVCR71.dll
 0002:00000400       __imp__freopen             1005f400     msvcrt:MSVCR71.dll
 0002:00000404       \177MSVCR71_NULL_THUNK_DATA 1005f404     msvcrt:MSVCR71.dll
 0002:00000408       __imp__SystemTimeToVariantTime@8 1005f408     oleaut32:OLEAUT32.dll
 0002:0000040c       __imp__VariantClear@4      1005f40c     oleaut32:OLEAUT32.dll
 0002:00000410       __imp__VarUdateFromDate@16 1005f410     oleaut32:OLEAUT32.dll
 0002:00000414       \177OLEAUT32_NULL_THUNK_DATA 1005f414     oleaut32:OLEAUT32.dll
 0002:00000418       __imp__RasGetErrorStringA@12 1005f418     Rasapi32:RASAPI32.dll
 0002:0000041c       __imp__RasEnumEntriesA@20  1005f41c     Rasapi32:RASAPI32.dll
 0002:00000420       __imp__RasHangUpA@4        1005f420     Rasapi32:RASAPI32.dll
 0002:00000424       __imp__RasDialA@24         1005f424     Rasapi32:RASAPI32.dll
 0002:00000428       \177RASAPI32_NULL_THUNK_DATA 1005f428     Rasapi32:RASAPI32.dll
 0002:0000042c       __imp_?SetStringToMatch@RegularExpression@@QAEXABV?$CStringT@DV?$StrTraitMFC_DLL@DV?$ChTraitsCRT@D@ATL@@@@@ATL@@@Z 1005f42c     RegularExpressionComponentDllVc71:RegularExpressionComponentDllVc71.dll
 0002:00000430       __imp_?Search@RegularExpression@@QAE_NXZ 1005f430     RegularExpressionComponentDllVc71:RegularExpressionComponentDllVc71.dll
 0002:00000434       __imp_??1RegularExpression@@UAE@XZ 1005f434     RegularExpressionComponentDllVc71:RegularExpressionComponentDllVc71.dll
 0002:00000438       __imp_?ParseExpression@RegularExpression@@QAE?AW4ExpressionErrorCode@1@XZ 1005f438     RegularExpressionComponentDllVc71:RegularExpressionComponentDllVc71.dll
 0002:0000043c       __imp_?SetExpression@RegularExpression@@QAEXABV?$CStringT@DV?$StrTraitMFC_DLL@DV?$ChTraitsCRT@D@ATL@@@@@ATL@@@Z 1005f43c     RegularExpressionComponentDllVc71:RegularExpressionComponentDllVc71.dll
 0002:00000440       __imp_?SetLocaleModel@RegularExpression@@QAEXW4LocaleModels@1@@Z 1005f440     RegularExpressionComponentDllVc71:RegularExpressionComponentDllVc71.dll
 0002:00000444       __imp_?SetFormatType@RegularExpression@@QAEXW4FormatTypes@1@@Z 1005f444     RegularExpressionComponentDllVc71:RegularExpressionComponentDllVc71.dll
 0002:00000448       __imp_??0RegularExpression@@QAE@XZ 1005f448     RegularExpressionComponentDllVc71:RegularExpressionComponentDllVc71.dll
 0002:0000044c       \177RegularExpressionComponentDllVc71_NULL_THUNK_DATA 1005f44c     RegularExpressionComponentDllVc71:RegularExpressionComponentDllVc71.dll
 0002:00000450       __imp__wsprintfA           1005f450     user32:USER32.dll
 0002:00000454       __imp__PostThreadMessageA@16 1005f454     user32:USER32.dll
 0002:00000458       __imp__DispatchMessageA@4  1005f458     user32:USER32.dll
 0002:0000045c       __imp__GetMessageA@16      1005f45c     user32:USER32.dll
 0002:00000460       \177USER32_NULL_THUNK_DATA 1005f460     user32:USER32.dll
 0002:00000464       __imp__ldap_first_entry    1005f464     Wldap32:WLDAP32.dll
 0002:00000468       __imp__ldap_unbind_s       1005f468     Wldap32:WLDAP32.dll
 0002:0000046c       __imp__ldap_result         1005f46c     Wldap32:WLDAP32.dll
 0002:00000470       __imp__ldap_next_entry     1005f470     Wldap32:WLDAP32.dll
 0002:00000474       __imp__ldap_next_attribute 1005f474     Wldap32:WLDAP32.dll
 0002:00000478       __imp__ldap_value_free     1005f478     Wldap32:WLDAP32.dll
 0002:0000047c       __imp__ldap_get_values     1005f47c     Wldap32:WLDAP32.dll
 0002:00000480       __imp__ldap_first_attribute 1005f480     Wldap32:WLDAP32.dll
 0002:00000484       __imp__ldap_search         1005f484     Wldap32:WLDAP32.dll
 0002:00000488       __imp__ldap_simple_bind_s  1005f488     Wldap32:WLDAP32.dll
 0002:0000048c       __imp__ldap_open           1005f48c     Wldap32:WLDAP32.dll
 0002:00000490       __imp__ldap_count_entries  1005f490     Wldap32:WLDAP32.dll
 0002:00000494       \177WLDAP32_NULL_THUNK_DATA 1005f494     Wldap32:WLDAP32.dll
 0002:00000498       __imp__htonl@4             1005f498     ws2_32:WS2_32.dll
 0002:0000049c       __imp__inet_addr@4         1005f49c     ws2_32:WS2_32.dll
 0002:000004a0       __imp__setsockopt@20       1005f4a0     ws2_32:WS2_32.dll
 0002:000004a4       __imp__socket@12           1005f4a4     ws2_32:WS2_32.dll
 0002:000004a8       __imp__gethostname@8       1005f4a8     ws2_32:WS2_32.dll
 0002:000004ac       __imp__gethostbyname@4     1005f4ac     ws2_32:WS2_32.dll
 0002:000004b0       __imp__htons@4             1005f4b0     ws2_32:WS2_32.dll
 0002:000004b4       __imp__inet_ntoa@4         1005f4b4     ws2_32:WS2_32.dll
 0002:000004b8       __imp__getsockname@12      1005f4b8     ws2_32:WS2_32.dll
 0002:000004bc       __imp__listen@8            1005f4bc     ws2_32:WS2_32.dll
 0002:000004c0       __imp__WSACleanup@0        1005f4c0     ws2_32:WS2_32.dll
 0002:000004c4       __imp__WSAStartup@8        1005f4c4     ws2_32:WS2_32.dll
 0002:000004c8       __imp__getsockopt@20       1005f4c8     ws2_32:WS2_32.dll
 0002:000004cc       __imp____WSAFDIsSet@8      1005f4cc     ws2_32:WS2_32.dll
 0002:000004d0       __imp__WSASetLastError@4   1005f4d0     ws2_32:WS2_32.dll
 0002:000004d4       __imp__select@20           1005f4d4     ws2_32:WS2_32.dll
 0002:000004d8       __imp__WSAGetLastError@0   1005f4d8     ws2_32:WS2_32.dll
 0002:000004dc       __imp__connect@12          1005f4dc     ws2_32:WS2_32.dll
 0002:000004e0       __imp__ioctlsocket@12      1005f4e0     ws2_32:WS2_32.dll
 0002:000004e4       __imp__bind@12             1005f4e4     ws2_32:WS2_32.dll
 0002:000004e8       __imp__sendto@24           1005f4e8     ws2_32:WS2_32.dll
 0002:000004ec       __imp__recvfrom@24         1005f4ec     ws2_32:WS2_32.dll
 0002:000004f0       __imp__recv@16             1005f4f0     ws2_32:WS2_32.dll
 0002:000004f4       __imp__closesocket@4       1005f4f4     ws2_32:WS2_32.dll
 0002:000004f8       __imp__shutdown@8          1005f4f8     ws2_32:WS2_32.dll
 0002:000004fc       __imp__accept@12           1005f4fc     ws2_32:WS2_32.dll
 0002:00000500       __imp__send@16             1005f500     ws2_32:WS2_32.dll
 0002:00000504       \177WS2_32_NULL_THUNK_DATA 1005f504     ws2_32:WS2_32.dll
 0002:00000508       __imp_?GetSVDYN@@YA_NV?$basic_string@DU?$char_traits@D@std@@V?$allocator@D@2@@std@@AAUsv_dyn@@00@Z 1005f508     svapi:svapi.dll
 0002:0000050c       __imp_?LoadResource@@YAPAXV?$basic_string@DU?$char_traits@D@std@@V?$allocator@D@2@@std@@0@Z 1005f50c     svapi:svapi.dll
 0002:00000510       __imp_?GetResourceNode@@YAPAXPAX@Z 1005f510     svapi:svapi.dll
 0002:00000514       __imp_?CloseResource@@YA_NAAPAX@Z 1005f514     svapi:svapi.dll
 0002:00000518       __imp_?FindNodeValue@@YA_NPAXV?$basic_string@DU?$char_traits@D@std@@V?$allocator@D@2@@std@@AAV12@@Z 1005f518     svapi:svapi.dll
 0002:0000051c       __imp_?GetSiteViewRootPath@@YA?AV?$basic_string@DU?$char_traits@D@std@@V?$allocator@D@2@@std@@XZ 1005f51c     svapi:svapi.dll
 0002:00000520       \177svapi_NULL_THUNK_DATA  1005f520     svapi:svapi.dll
 0002:00000528       ??_C@_0BB@KEKMKJPM@Invalid?5DateTime?$AA@ 1005f528     AddrTable.obj
 0002:00000539       ??_C@_00CNPNBAHC@?$AA@     1005f539     AddrTable.obj
 0002:0000053c       ??_C@_0M@PCENNPGA@?$CFd?4?$CFd?4?$CFd?4?$CFd?$AA@ 1005f53c     AddrTable.obj
 0002:00000548       ??_C@_0M@CDHNGIPM@?$CFu?4?$CFu?4?$CFu?4?$CFu?$AA@ 1005f548     AddrTable.obj
 0002:00000558       __real@0000000000000000    1005f558     ado.obj
 0002:00000560       ??_C@_01LIIJDEN@?$AN?$AA@  1005f560     ado.obj
 0002:00000568       __real@41f0000000000000    1005f568     ado.obj
 0002:00002770       ??_C@_0BK@CIIIGNME@?$CF2?42d?$CF2?42d?$CF2?42d?$CF2?42d?$CF2?42d?$AA@ 10061770     AIXErrpt.obj
 0002:0000278c       ??_C@_03MKABNOCG@Dec?$AA@  1006178c     AIXErrpt.obj
 0002:00002790       ??_C@_03JPJOFNIA@Nov?$AA@  10061790     AIXErrpt.obj
 0002:00002794       ??_C@_03BMAOKBAD@Oct?$AA@  10061794     AIXErrpt.obj
 0002:00002798       ??_C@_03GGCAPAJC@Sep?$AA@  10061798     AIXErrpt.obj
 0002:0000279c       ??_C@_03IFJFEIGA@Aug?$AA@  1006179c     AIXErrpt.obj
 0002:000027a0       ??_C@_03LBGABGKK@Jul?$AA@  100617a0     AIXErrpt.obj
 0002:000027a4       ??_C@_03IDFGHECI@Jun?$AA@  100617a4     AIXErrpt.obj
 0002:000027a8       ??_C@_03CNMDKL@May?$AA@    100617a8     AIXErrpt.obj
 0002:000027ac       ??_C@_03LEOLGMJP@Apr?$AA@  100617ac     AIXErrpt.obj
 0002:000027b0       ??_C@_03ODNJBKGA@Mar?$AA@  100617b0     AIXErrpt.obj
 0002:000027b4       ??_C@_03HJBDCHOM@Feb?$AA@  100617b4     AIXErrpt.obj
 0002:000027b8       ??_C@_03JIHJHPIE@Jan?$AA@  100617b8     AIXErrpt.obj
 0002:000027bc       ??_C@_01GBGANLPD@0?$AA@    100617bc     AIXErrpt.obj
 0002:000027c0       ??_C@_05MOECANKB@Times?$AA@ 100617c0     AIXErrpt.obj
 0002:000027c8       ??_C@_06CLONMKIH@?$CFY?$CFm?$CFd?$AA@ 100617c8     AIXErrpt.obj
 0002:000027d0       ??_C@_0CD@CMIGJENF@?4?4?2data?2tmpinifile?2Confirms_?$CFs?4i@ 100617d0     AIXErrpt.obj
 0002:000027f4       ??_C@_09JKHNENPB@status?$DN0$?$AA@ 100617f4     AIXErrpt.obj
 0002:00002800       ??_C@_0M@JEJFMFKO@needconfirm?$AA@ 10061800     AIXErrpt.obj
 0002:0000280c       ??_C@_0O@MNICCNKN@Track?5record?6?$AA@ 1006180c     AIXErrpt.obj
 0002:0000281c       ??_C@_02DKCKIIND@?$CFs?$AA@ 1006181c     AIXErrpt.obj
 0002:00002820       ??_C@_02DPNLHKJD@a?$CL?$AA@ 10061820     AIXErrpt.obj
 0002:00002824       ??_C@_0CC@CGDFOPNM@?$CFs?2data?2TmpIniFile?2logfile_?$CFs?4lo@ 10061824     AIXErrpt.obj
 0002:00002848       ??_C@_09JLLPCHMG@status?$DN1$?$AA@ 10061848     AIXErrpt.obj
 0002:00002854       ??_C@_0BI@GJJBJDAH@?$CFs?5?$CFs?5?$CFd?5?$CFd?3?$CFd?3?$CFd?5?$CFs?5?$CFd?$AA@ 10061854     AIXErrpt.obj
 0002:0000286c       ??_C@_0BN@KFCEBCEK@Error?5Report?5Command?5is?5?3?$CFs?6?$AA@ 1006186c     AIXErrpt.obj
 0002:0000288c       ??_C@_08FGIJKCCA@lastdate?$AA@ 1006188c     AIXErrpt.obj
 0002:00002898       ??_C@_0M@GDDOIBAA@logfile?4ini?$AA@ 10061898     AIXErrpt.obj
 0002:000028a4       ??_C@_0CB@JDLAOHBM@?$LJ?$KL?T?$KK?$CFd?D?j?$CFd?T?B?$CFd?H?U?5?$CFs?5?$CFd?J?$LB?$CFd?$LH?V?$CFd?C?k@ 100618a4     AIXErrpt.obj
 0002:000028c8       ??_C@_0BD@BJIKFJCG@?$DM?$CFIDS_LOGFILE_01?$CF?$DO?$AA@ 100618c8     AIXErrpt.obj
 0002:000028dc       ??_C@_09KMNOFJML@isChinese?$AA@ 100618dc     AIXErrpt.obj
 0002:000028e8       ??_C@_04JNIHBGGH@date?$AA@ 100618e8     AIXErrpt.obj
 0002:000028f0       ??_C@_09EFLIJCIG@matchline?$AA@ 100618f0     AIXErrpt.obj
 0002:000028fc       ??_C@_0BD@LDPPGMI@?$DM?$CFIDS_LOGFILE_02?$CF?$DO?$AA@ 100618fc     AIXErrpt.obj
 0002:00002910       ??_C@_08PIPHEPLD@errorlog?$AA@ 10061910     AIXErrpt.obj
 0002:0000291c       ??_C@_07KMMNMMFF@command?$AA@ 1006191c     AIXErrpt.obj
 0002:00002924       ??_C@_0O@EGGHEONA@?$DM?$CFIDS_MQ_12?$CF?$DO?$AA@ 10061924     AIXErrpt.obj
 0002:00002934       ??_C@_0O@FENCOBDO@?$DM?$CFIDS_MQ_11?$CF?$DO?$AA@ 10061934     AIXErrpt.obj
 0002:00002944       ??_C@_0O@OMGOIGFL@?$DM?$CFIDS_MQ_10?$CF?$DO?$AA@ 10061944     AIXErrpt.obj
 0002:00002954       ??_C@_0N@LKHKOCIE@?$DM?$CFIDS_MQ_9?$CF?$DO?$AA@ 10061954     AIXErrpt.obj
 0002:00002964       ??_C@_0N@CMGIFOB@?$DM?$CFIDS_MQ_8?$CF?$DO?$AA@ 10061964     AIXErrpt.obj
 0002:00002974       ??_C@_0N@FKKFJFLH@?$DM?$CFIDS_MQ_7?$CF?$DO?$AA@ 10061974     AIXErrpt.obj
 0002:00002984       ??_C@_08NIOFPIDH@error?$DN?$CFs?$AA@ 10061984     AIXErrpt.obj
 0002:00002990       ??_C@_0N@OCBJPCNC@?$DM?$CFIDS_MQ_6?$CF?$DO?$AA@ 10061990     AIXErrpt.obj
 0002:000029a0       ??_C@_0N@PAKMFNDM@?$DM?$CFIDS_MQ_5?$CF?$DO?$AA@ 100619a0     AIXErrpt.obj
 0002:000029b0       ??_C@_0N@EIBADKFJ@?$DM?$CFIDS_MQ_4?$CF?$DO?$AA@ 100619b0     AIXErrpt.obj
 0002:000029c0       ??_C@_0N@NFMHACOA@?$DM?$CFIDS_MQ_3?$CF?$DO?$AA@ 100619c0     AIXErrpt.obj
 0002:000029d0       ??_C@_0N@GNHLGFIF@?$DM?$CFIDS_MQ_2?$CF?$DO?$AA@ 100619d0     AIXErrpt.obj
 0002:000029e0       ??_C@_0N@HPMOMKGL@?$DM?$CFIDS_MQ_1?$CF?$DO?$AA@ 100619e0     AIXErrpt.obj
 0002:000029f0       ??_C@_09DCFPOEHM@SV_APACHE?$AA@ 100619f0     Apache.obj
 0002:000029fc       ??_C@_0BH@EKLPLMNC@APACHE_DATA_TYPE_ERROR?$AA@ 100619fc     Apache.obj
 0002:00002a18       ??_C@_0GE@DHBGKAPG@cpuLoad?$DN?$CFf$accessCount?$DN?$CFd$reqPer@ 10061a18     Apache.obj
 0002:00002a7c       __real@42700000            10061a7c     Apache.obj
 0002:00002a80       ??_C@_0N@BKGFNKGK@IdleServers?3?$AA@ 10061a80     Apache.obj
 0002:00002a90       ??_C@_05DIALNFFA@?$CFs?5?$CFd?$AA@ 10061a90     Apache.obj
 0002:00002a98       ??_C@_0N@GKINJFDB@BusyServers?3?$AA@ 10061a98     Apache.obj
 0002:00002aa8       ??_C@_0N@NAFBEMGH@BytesPerReq?3?$AA@ 10061aa8     Apache.obj
 0002:00002ab8       ??_C@_0N@PCJDBCMJ@BytesPerSec?3?$AA@ 10061ab8     Apache.obj
 0002:00002ac8       ??_C@_0L@LCINBHDA@ReqPerSec?3?$AA@ 10061ac8     Apache.obj
 0002:00002ad4       ??_C@_02NJPGOMH@?$CFf?$AA@ 10061ad4     Apache.obj
 0002:00002ad8       ??_C@_0O@MHNAJFAB@Total?5kBytes?3?$AA@ 10061ad8     Apache.obj
 0002:00002ae8       ??_C@_02DPKJAMEF@?$CFd?$AA@ 10061ae8     Apache.obj
 0002:00002aec       ??_C@_0BA@ENKGNIDI@Total?5Accesses?3?$AA@ 10061aec     Apache.obj
 0002:00002afc       ??_C@_05KDNLHNC@?$CFs?5?$CFf?$AA@ 10061afc     Apache.obj
 0002:00002b04       ??_C@_08FADHOGCN@CPULoad?3?$AA@ 10061b04     Apache.obj
 0002:00002b10       ??_C@_09NEOLBCBJ@SV_SOCKET?$AA@ 10061b10     Apache.obj
 0002:00002b1c       ??_C@_0BH@FMPDBGHP@SOCKET_DATA_TYPE_ERROR?$AA@ 10061b1c     Apache.obj
 0002:00002b38       ??_C@_0GM@BBFJLAMB@totalAccesses?$DN?$CFld$totalKBytes?$DN?$CFl@ 10061b38     Apache.obj
 0002:00002ba4       ??_C@_0O@KCDFBONE@IdleWorkers?3?5?$AA@ 10061ba4     Apache.obj
 0002:00002bb4       ??_C@_0O@FOPMHOOH@BusyWorkers?3?5?$AA@ 10061bb4     Apache.obj
 0002:00002bc4       ??_C@_0O@EGICIBBF@BytesPerReq?3?5?$AA@ 10061bc4     Apache.obj
 0002:00002bd4       ??_C@_0O@HHMOMNKE@BytesPerSec?3?5?$AA@ 10061bd4     Apache.obj
 0002:00002be4       ??_C@_0M@LDOPJJBJ@ReqPerSec?3?5?$AA@ 10061be4     Apache.obj
 0002:00002bf0       ??_C@_0P@OCEEMEKB@Total?5kBytes?3?5?$AA@ 10061bf0     Apache.obj
 0002:00002c00       ??_C@_0BB@LNMLDKOE@Total?5Accesses?3?5?$AA@ 10061c00     Apache.obj
 0002:00002c14       ??_C@_02PCIJFNDE@?$AN?6?$AA@ 10061c14     AppOctetStream.obj
 0002:00002c18       ??_C@_05JDBAEENH@?$CFs?$CFu$?$AA@ 10061c18     Bandwidth.obj
 0002:00002c20       ??_C@_0P@EJEDJOMP@?$CFs?$CFd?4?$CFd?4?$CFd?4?$CFd$?$AA@ 10061c20     Bandwidth.obj
 0002:00002c30       ??_C@_05HEBLGFBK@?$CFs?$CFd?4?$AA@ 10061c30     Bandwidth.obj
 0002:00002c38       ??_C@_04HDOCAJNK@?$CFs?$CFs?$AA@ 10061c38     Bandwidth.obj
 0002:00002c40       ??_C@_04MIFLBDDM@1?43?4?$AA@ 10061c40     Bandwidth.obj
 0002:00002c48       ??_C@_05JHJNDIGF@?$CFs?$CFs$?$AA@ 10061c48     Bandwidth.obj
 0002:00002c50       ??_C@_05IOPEINJA@?$CFs?$CFd$?$AA@ 10061c50     Bandwidth.obj
 0002:00002c58       ??_C@_03HFAIOBFI@?$CFs?$DN?$AA@ 10061c58     Bandwidth.obj
 0002:00002c5c       ??_C@_07INKCNIBG@ifSpeed?$AA@ 10061c5c     Bandwidth.obj
 0002:00002c64       ??_C@_0L@LPCLEGKP@ifInOctets?$AA@ 10061c64     Bandwidth.obj
 0002:00002c70       ??_C@_05MJNJBHN@?$CFs?$CFs?$DN?$AA@ 10061c70     Bandwidth.obj
 0002:00002c78       ??_C@_0M@BPEMKFEM@ifOutOctets?$AA@ 10061c78     Bandwidth.obj
 0002:00002c84       ??_C@_0BC@KLDDNFCN@?$DM?$CFIDS_Dynamo_12?$CF?$DO?$AA@ 10061c84     Bandwidth.obj
 0002:00002c98       ??_C@_0BC@LJIGHKMD@?$DM?$CFIDS_Dynamo_11?$CF?$DO?$AA@ 10061c98     Bandwidth.obj
 0002:00002cac       ??_C@_0BC@BDKBNKG@?$DM?$CFIDS_Dynamo_10?$CF?$DO?$AA@ 10061cac     Bandwidth.obj
 0002:00002cc0       ??_C@_0BB@FGGCDPAE@?$DM?$CFIDS_Dynamo_9?$CF?$DO?$AA@ 10061cc0     Bandwidth.obj
 0002:00002cd4       ??_C@_0BB@OONOFIGB@?$DM?$CFIDS_Dynamo_8?$CF?$DO?$AA@ 10061cd4     Bandwidth.obj
 0002:00002ce8       ??_C@_0BB@LGLNEIDH@?$DM?$CFIDS_Dynamo_7?$CF?$DO?$AA@ 10061ce8     Bandwidth.obj
 0002:00002cfc       ??_C@_0BB@OABCPFC@?$DM?$CFIDS_Dynamo_6?$CF?$DO?$AA@ 10061cfc     Bandwidth.obj
 0002:00002d10       ??_C@_0BB@BMLEIALM@?$DM?$CFIDS_Dynamo_5?$CF?$DO?$AA@ 10061d10     Bandwidth.obj
 0002:00002d24       ??_C@_0BB@KEAIOHNJ@?$DM?$CFIDS_Dynamo_4?$CF?$DO?$AA@ 10061d24     Bandwidth.obj
 0002:00002d38       ??_C@_0BB@DJNPNPGA@?$DM?$CFIDS_Dynamo_3?$CF?$DO?$AA@ 10061d38     Bandwidth.obj
 0002:00002d4c       ??_C@_0BB@IBGDLIAF@?$DM?$CFIDS_Dynamo_2?$CF?$DO?$AA@ 10061d4c     Bandwidth.obj
 0002:00002d60       ??_C@_0BB@JDNGBHOL@?$DM?$CFIDS_Dynamo_1?$CF?$DO?$AA@ 10061d60     Bandwidth.obj
 0002:00002d74       ??_7CBase64@@6B@           10061d74     Base64.obj
 0002:00002d80       ??_C@_0EB@NFPJKBDG@ABCDEFGHIJKLMNOPQRSTUVWXYZabcdef@ 10061d80     Base64.obj
 0002:00003e10       ??_C@_0M@JLJIOKAI@ModuleState?$AA@ 10062e10     CheckPoint.obj
 0002:00003e1c       ??_C@_0L@MNEJGONN@PointEvent?$AA@ 10062e1c     CheckPoint.obj
 0002:00003e28       ??_C@_07HMDPOHHF@Product?$AA@ 10062e28     CheckPoint.obj
 0002:00003e30       ??_C@_05OMKCEFIL@Minor?$AA@ 10062e30     CheckPoint.obj
 0002:00003e38       ??_C@_05FDLAJJBN@Major?$AA@ 10062e38     CheckPoint.obj
 0002:00003e40       ??_C@_06NKPEEBIM@Logged?$AA@ 10062e40     CheckPoint.obj
 0002:00003e48       ??_C@_07GIDPHHDH@Dropped?$AA@ 10062e48     CheckPoint.obj
 0002:00003e50       ??_C@_08NPOEDMAC@Rejected?$AA@ 10062e50     CheckPoint.obj
 0002:00003e5c       ??_C@_0BG@ELAEDAGP@?$DM?$CFIDS_CheckPoint_12?$CF?$DO?$AA@ 10062e5c     CheckPoint.obj
 0002:00003e74       ??_C@_0BG@FJLBJPIB@?$DM?$CFIDS_CheckPoint_11?$CF?$DO?$AA@ 10062e74     CheckPoint.obj
 0002:00003e8c       ??_C@_0BG@OBANPIOE@?$DM?$CFIDS_CheckPoint_10?$CF?$DO?$AA@ 10062e8c     CheckPoint.obj
 0002:00003ea4       ??_C@_0BF@LEGOGDAO@?$DM?$CFIDS_CheckPoint_9?$CF?$DO?$AA@ 10062ea4     CheckPoint.obj
 0002:00003ebc       ??_C@_0BF@MNCAEGL@?$DM?$CFIDS_CheckPoint_8?$CF?$DO?$AA@ 10062ebc     CheckPoint.obj
 0002:00003ed4       ??_C@_0BF@FELBBEDN@?$DM?$CFIDS_CheckPoint_7?$CF?$DO?$AA@ 10062ed4     CheckPoint.obj
 0002:00003eec       ??_C@_0BF@OMANHDFI@?$DM?$CFIDS_CheckPoint_6?$CF?$DO?$AA@ 10062eec     CheckPoint.obj
 0002:00003f04       ??_C@_0BF@POLINMLG@?$DM?$CFIDS_CheckPoint_5?$CF?$DO?$AA@ 10062f04     CheckPoint.obj
 0002:00003f1c       ??_C@_0BF@EGAELLND@?$DM?$CFIDS_CheckPoint_4?$CF?$DO?$AA@ 10062f1c     CheckPoint.obj
 0002:00003f34       ??_C@_0BF@NLNDIDGK@?$DM?$CFIDS_CheckPoint_3?$CF?$DO?$AA@ 10062f34     CheckPoint.obj
 0002:00003f4c       ??_C@_0BF@GDGPOEAP@?$DM?$CFIDS_CheckPoint_2?$CF?$DO?$AA@ 10062f4c     CheckPoint.obj
 0002:00003f64       ??_C@_0BF@HBNKELOB@?$DM?$CFIDS_CheckPoint_1?$CF?$DO?$AA@ 10062f64     CheckPoint.obj
 0002:00003f7c       ??_C@_0CA@FACIEDML@utilization?$DN?$CFd$$freeSpace?$DN?$CF?42f$?$AA@ 10062f7c     CiscoCPU.obj
 0002:00003f9c       __real@34000000            10062f9c     CiscoCPU.obj
 0002:00003fa0       ??_C@_0BE@KHEIDPPD@?$DM?$CFIDS_CiscoCPU_13?$CF?$DO?$AA@ 10062fa0     CiscoCPU.obj
 0002:00003fb4       ??_C@_0BE@BPPEFIJG@?$DM?$CFIDS_CiscoCPU_12?$CF?$DO?$AA@ 10062fb4     CiscoCPU.obj
 0002:00003fc8       ??_C@_0BE@NEBPHHI@?$DM?$CFIDS_CiscoCPU_11?$CF?$DO?$AA@ 10062fc8     CiscoCPU.obj
 0002:00003fdc       ??_C@_0BE@LFPNJABN@?$DM?$CFIDS_CiscoCPU_10?$CF?$DO?$AA@ 10062fdc     CiscoCPU.obj
 0002:00003ff0       ??_C@_0BD@JKFBLDPI@?$DM?$CFIDS_CiscoCPU_9?$CF?$DO?$AA@ 10062ff0     CiscoCPU.obj
 0002:00004004       ??_C@_0BD@CCONNEJN@?$DM?$CFIDS_CiscoCPU_8?$CF?$DO?$AA@ 10063004     CiscoCPU.obj
 0002:00004018       ??_C@_0BD@HKIOMEML@?$DM?$CFIDS_CiscoCPU_7?$CF?$DO?$AA@ 10063018     CiscoCPU.obj
 0002:0000402c       ??_C@_0BD@MCDCKDKO@?$DM?$CFIDS_CiscoCPU_6?$CF?$DO?$AA@ 1006302c     CiscoCPU.obj
 0002:00004040       ??_C@_0BD@NAIHAMEA@?$DM?$CFIDS_CiscoCPU_5?$CF?$DO?$AA@ 10063040     CiscoCPU.obj
 0002:00004054       ??_C@_0BD@GIDLGLCF@?$DM?$CFIDS_CiscoCPU_4?$CF?$DO?$AA@ 10063054     CiscoCPU.obj
 0002:00004068       ??_C@_0BD@PFOMFDJM@?$DM?$CFIDS_CiscoCPU_3?$CF?$DO?$AA@ 10063068     CiscoCPU.obj
 0002:0000407c       ??_C@_0BD@ENFADEPJ@?$DM?$CFIDS_CiscoCPU_2?$CF?$DO?$AA@ 1006307c     CiscoCPU.obj
 0002:00004090       ??_C@_0BD@FPOFJLBH@?$DM?$CFIDS_CiscoCPU_1?$CF?$DO?$AA@ 10063090     CiscoCPU.obj
 0002:000040a4       ??_C@_0CA@HEONAEE@utilization?$DN?$CFd$$percentused?$DN?$CFd$?$AA@ 100630a4     CiscoCPU.obj
 0002:000040c4       ??_C@_04PEBCBNNG@8016?$AA@ 100630c4     CiscoCPU.obj
 0002:000040cc       ??_C@_0DO@HBAFNFAC@utilization?$DN?$CFd$freeSpace?$DN?$CF?42f$to@ 100630cc     CiscoCPU.obj
 0002:0000410c       __real@42c80000            1006310c     CiscoCPU.obj
 0002:00004110       __real@35800000            10063110     CiscoCPU.obj
 0002:00004114       ??_C@_01CLKCMJKC@?5?$AA@   10063114     CiscoLog.obj
 0002:00004118       ??_C@_08ELBAGLNG@?9?9More?9?9?$AA@ 10063118     CiscoLog.obj
 0002:00004124       ??_C@_0BE@DOILFKFE@?$DM?$CFIDS_CiscoLog_15?$CF?$DO?$AA@ 10063124     CiscoLog.obj
 0002:00004138       ??_C@_0BE@IGDHDNDB@?$DM?$CFIDS_CiscoLog_14?$CF?$DO?$AA@ 10063138     CiscoLog.obj
 0002:0000414c       ??_C@_0BE@BLOAAFII@?$DM?$CFIDS_CiscoLog_13?$CF?$DO?$AA@ 1006314c     CiscoLog.obj
 0002:00004160       ??_C@_0BE@KDFMGCON@?$DM?$CFIDS_CiscoLog_12?$CF?$DO?$AA@ 10063160     CiscoLog.obj
 0002:00004174       ??_C@_01KDCPPGHE@r?$AA@    10063174     CiscoLog.obj
 0002:00004178       ??_C@_0L@DFPMMBPJ@status?$DN?$CFs$?$AA@ 10063178     CiscoLog.obj
 0002:00004184       ??_C@_0BE@LBOJMNAD@?$DM?$CFIDS_CiscoLog_11?$CF?$DO?$AA@ 10063184     CiscoLog.obj
 0002:00004198       ??_C@_0BE@JFFKKGG@?$DM?$CFIDS_CiscoLog_10?$CF?$DO?$AA@ 10063198     CiscoLog.obj
 0002:000041ac       ??_C@_01NOFIACDB@w?$AA@    100631ac     CiscoLog.obj
 0002:000041b0       ??_C@_0BG@CAGOMNBN@show?5running?9config?$AN?6?$AA@ 100631b0     CiscoLog.obj
 0002:000041c8       ??_C@_0BD@FEOINCEJ@?$DM?$CFIDS_CiscoLog_9?$CF?$DO?$AA@ 100631c8     CiscoLog.obj
 0002:000041dc       ??_C@_0BB@KEHFNNCM@Execute?5command?6?$AA@ 100631dc     CiscoLog.obj
 0002:000041f0       ??_C@_0BD@OMFELFCM@?$DM?$CFIDS_CiscoLog_8?$CF?$DO?$AA@ 100631f0     CiscoLog.obj
 0002:00004204       ??_C@_0BE@NKJABNDA@Login?5Cisio?5Config?6?$AA@ 10063204     CiscoLog.obj
 0002:00004218       ??_C@_08JDJCJH@enable?$AN?6?$AA@ 10063218     CiscoLog.obj
 0002:00004224       ??_C@_0BD@LEDHKFHK@?$DM?$CFIDS_CiscoLog_7?$CF?$DO?$AA@ 10063224     CiscoLog.obj
 0002:00004238       ??_C@_0BL@BMCKNGJC@Connect?5Cisio?5network?5set?6?$AA@ 10063238     CiscoLog.obj
 0002:00004254       ??_C@_0BD@MILMCBP@?$DM?$CFIDS_CiscoLog_6?$CF?$DO?$AA@ 10063254     CiscoLog.obj
 0002:00004268       ??_C@_0BD@BODOGNPB@?$DM?$CFIDS_CiscoLog_5?$CF?$DO?$AA@ 10063268     CiscoLog.obj
 0002:0000427c       ??_C@_0BD@KGICAKJE@?$DM?$CFIDS_CiscoLog_4?$CF?$DO?$AA@ 1006327c     CiscoLog.obj
 0002:00004290       ??_C@_0BD@DLFFDCCN@?$DM?$CFIDS_CiscoLog_3?$CF?$DO?$AA@ 10063290     CiscoLog.obj
 0002:000042a4       ??_C@_0BD@IDOJFFEI@?$DM?$CFIDS_CiscoLog_2?$CF?$DO?$AA@ 100632a4     CiscoLog.obj
 0002:000042b8       ??_C@_0BD@JBFMPKKG@?$DM?$CFIDS_CiscoLog_1?$CF?$DO?$AA@ 100632b8     CiscoLog.obj
 0002:000042cc       ??_C@_0BD@JNKEMFG@Server?3?$CFs?6Port?3?$CFd?6?$AA@ 100632cc     CiscoLog.obj
 0002:000042e0       ??_C@_0CD@NCJIKKK@?$CFs?2MonitorManager?2temp?2logfile?4i@ 100632e0     CiscoLog.obj
 0002:00004304       ??_C@_0BD@EIHEPPPF@?$CFs?2cisco_config_?$CFs?$AA@ 10063304     CiscoLog.obj
 0002:00004318       ??_C@_01EEMJAFIK@?6?$AA@   10063318     Cluster.obj
 0002:0000431c       ??_C@_0L@LIKGBCC@No?5Cluster?$AA@ 1006331c     Cluster.obj
 0002:00004328       ??_C@_07PEKDEBA@No?5Node?$AA@ 10063328     Cluster.obj
 0002:00004330       ??_C@_0L@HMLGPMLK@No?5Package?$AA@ 10063330     Cluster.obj
 0002:00004340       ??_C@_0EF@DMIIGAOO@?$CFsPackageName?$DN?$CFs$PackageStatus?$DN?$CF@ 10063340     Cluster.obj
 0002:00004388       ??_C@_07FABLKDFK@PACKAGE?$AA@ 10063388     Cluster.obj
 0002:00004390       ??_C@_0CK@CJOOEEEA@?$CFsNodeName?$DN?$CFs$NodeStatus?$DN?$CFs$Node@ 10063390     Cluster.obj
 0002:000043bc       ??_C@_04OHPEDIPN@NODE?$AA@ 100633bc     Cluster.obj
 0002:000043c4       ??_C@_0CD@FBIHJKBC@?$CFsClusterName?$DN?$CFs$ClusterStatus?$DN?$CF@ 100633c4     Cluster.obj
 0002:000043e8       ??_C@_07CHCHDOMC@CLUSTER?$AA@ 100633e8     Cluster.obj
 0002:000043f0       ??_C@_0BG@FADMLPJE@?$DM?$CFIDS_TelMonitor_15?$CF?$DO?$AA@ 100633f0     Cluster.obj
 0002:00004408       ??_C@_06DJPGEMNB@?$DMfile?$DO?$AA@ 10063408     Cluster.obj
 0002:00004410       ??_C@_0BG@OIIANIPB@?$DM?$CFIDS_TelMonitor_14?$CF?$DO?$AA@ 10063410     Cluster.obj
 0002:00004428       ??_C@_03PFGOGFOL@cat?$AA@  10063428     Cluster.obj
 0002:0000442c       ??_C@_0CC@MFJCHAHH@?$CFs?2MonitorManager?2templates?4os?2?$CF@ 1006342c     Cluster.obj
 0002:00004450       ??_C@_0BG@HFFHOAEI@?$DM?$CFIDS_TelMonitor_13?$CF?$DO?$AA@ 10063450     Cluster.obj
 0002:00004468       ??_C@_0BG@MNOLIHCN@?$DM?$CFIDS_TelMonitor_12?$CF?$DO?$AA@ 10063468     Cluster.obj
 0002:00004480       ??_C@_0BG@NPFOCIMD@?$DM?$CFIDS_TelMonitor_11?$CF?$DO?$AA@ 10063480     Cluster.obj
 0002:00004498       ??_C@_0BG@GHOCEPKG@?$DM?$CFIDS_TelMonitor_10?$CF?$DO?$AA@ 10063498     Cluster.obj
 0002:000044b0       ??_C@_0BF@IIALPFNO@?$DM?$CFIDS_TelMonitor_9?$CF?$DO?$AA@ 100634b0     Cluster.obj
 0002:000044c8       ??_C@_0BF@DALHJCLL@?$DM?$CFIDS_TelMonitor_8?$CF?$DO?$AA@ 100634c8     Cluster.obj
 0002:000044e0       ??_C@_0BF@GINEICON@?$DM?$CFIDS_TelMonitor_7?$CF?$DO?$AA@ 100634e0     Cluster.obj
 0002:000044f8       ??_C@_0BF@NAGIOFII@?$DM?$CFIDS_TelMonitor_6?$CF?$DO?$AA@ 100634f8     Cluster.obj
 0002:00004510       ??_C@_0BF@MCNNEKGG@?$DM?$CFIDS_TelMonitor_5?$CF?$DO?$AA@ 10063510     Cluster.obj
 0002:00004528       ??_C@_0BF@HKGBCNAD@?$DM?$CFIDS_TelMonitor_4?$CF?$DO?$AA@ 10063528     Cluster.obj
 0002:00004540       ??_C@_0BF@OHLGBFLK@?$DM?$CFIDS_TelMonitor_3?$CF?$DO?$AA@ 10063540     Cluster.obj
 0002:00004558       ??_C@_0BF@FPAKHCNP@?$DM?$CFIDS_TelMonitor_2?$CF?$DO?$AA@ 10063558     Cluster.obj
 0002:00004570       ??_C@_0BF@ENLPNNDB@?$DM?$CFIDS_TelMonitor_1?$CF?$DO?$AA@ 10063570     Cluster.obj
 0002:00004588       ??_C@_0BF@NDAGKDJG@?$DM?$CFIDS_SSHMonitor_7?$CF?$DO?$AA@ 10063588     Cluster.obj
 0002:000045a0       ??_C@_0BF@GLLKMEPD@?$DM?$CFIDS_SSHMonitor_6?$CF?$DO?$AA@ 100635a0     Cluster.obj
 0002:000045b8       ??_C@_0BF@HJAPGLBN@?$DM?$CFIDS_SSHMonitor_5?$CF?$DO?$AA@ 100635b8     Cluster.obj
 0002:000045d0       ??_C@_0BF@MBLDAMHI@?$DM?$CFIDS_SSHMonitor_4?$CF?$DO?$AA@ 100635d0     Cluster.obj
 0002:000045e8       ??_C@_0BF@FMGEDEMB@?$DM?$CFIDS_SSHMonitor_3?$CF?$DO?$AA@ 100635e8     Cluster.obj
 0002:00004600       ??_C@_0DG@DHLIAEID@?$CFs?5?$CC?9ssh?$CC?5?$CC?9t?$CC?5?$CC?$CFd?$CC?5?$CC?9P?$CC?5?$CC?$CFd?$CC?5?$CC?9@ 10063600     Cluster.obj
 0002:00004638       ??_C@_09BGBECDEO@plink?4exe?$AA@ 10063638     Cluster.obj
 0002:00004644       ??_C@_0BF@PGGNPMEK@?$DM?$CFIDS_SSHMonitor_1?$CF?$DO?$AA@ 10063644     Cluster.obj
 0002:00004a60       ??_C@_0BB@MFPKANJK@?$DM?$CFIDS_CTRON_01?$CF?$DO?$AA@ 10063a60     Ctron.obj
 0002:00004a74       ??_C@_0BB@NHEPKCHE@?$DM?$CFIDS_CTRON_02?$CF?$DO?$AA@ 10063a74     Ctron.obj
 0002:00004a88       ??_C@_0BC@FEEHCMEN@?$CFsUtilization?$DN?$CFd$?$AA@ 10063a88     Ctron.obj
 0002:00004a9c       ??_C@_0BA@MIHMDLEF@?$CFs?$CFd?$CD?$CD?$CD?$CFs?$CD?$CD?$CD$$$?$AA@ 10063a9c     Ctron.obj
 0002:00004aac       ??_C@_0CM@JKJHKGJI@_Rate64Octets?$DN?$CF?42f$_Rate65to127O@ 10063aac     Ctron.obj
 0002:00004ad8       __real@4f800000            10063ad8     Ctron.obj
 0002:00004adc       ??_C@_03JALODAI@?$CFld?$AA@ 10063adc     Ctron.obj
 0002:00004ae0       ??_C@_0P@DMICNKCJ@_65to127Octets?$AA@ 10063ae0     Ctron.obj
 0002:00004af0       ??_C@_09GDKFHNHA@_64Octets?$AA@ 10063af0     Ctron.obj
 0002:00004afc       ??_C@_06HBCINDOD@ifTime?$AA@ 10063afc     Ctron.obj
 0002:00004b04       ??_C@_0L@JDNAHJJH@ifIndex_?$CFs?$AA@ 10063b04     Ctron.obj
 0002:00004b10       ??_C@_05BMGBEOOC@?$CFs?2?$CFs?$AA@ 10063b10     Ctron.obj
 0002:00004b18       ??_C@_0BD@EGLMALG@ctron_?$CFs_?$CFd_?$CFd?4ini?$AA@ 10063b18     Ctron.obj
 0002:00004b2c       ??_C@_01IHBHIGKO@?0?$AA@   10063b2c     DB.obj
 0002:00004b30       ??_C@_0N@HNKBFAGD@?$DM?$CFIDS_DB_2?$CF?$DO?$AA@ 10063b30     DB.obj
 0002:00004b40       ??_C@_0CI@BHELEPPC@status?$DN?$CFd$svrows?$DN?$CFld$roundTripTi@ 10063b40     DB.obj
 0002:00004b68       ??_C@_0N@GPBEPPIN@?$DM?$CFIDS_DB_1?$CF?$DO?$AA@ 10063b68     DB.obj
 0002:00004b78       ??_C@_0BG@GOMJJMFJ@DSN?$DN?$CFs?$DLUID?$DN?$CFs?$DLPWD?$DN?$CFs?$DL?$AA@ 10063b78     DB.obj
 0002:00004b90       ??_C@_0BF@DJFPALMK@UuidCreateSequential?$AA@ 10063b90     DHCP.obj
 0002:00004ba8       ??_C@_0L@IKBIFNGI@rpcrt4?4dll?$AA@ 10063ba8     DHCP.obj
 0002:00004bb4       ??_C@_0BA@FEGJJGLJ@?$DM?$CFIDS_DHCP_10?$CF?$DO?$AA@ 10063bb4     DHCP.obj
 0002:00004bc4       ??_C@_0P@LIHDGING@?$DM?$CFIDS_DHCP_8?$CF?$DO?$AA@ 10063bc4     DHCP.obj
 0002:00004bd4       ??_C@_0BC@HOONFAFK@roundTripTime?$DN?$CFld?$AA@ 10063bd4     DHCP.obj
 0002:00004be8       ??_C@_0P@OABAHIIA@?$DM?$CFIDS_DHCP_7?$CF?$DO?$AA@ 10063be8     DHCP.obj
 0002:00004bf8       ??_C@_0P@FIKMBPOF@?$DM?$CFIDS_DHCP_6?$CF?$DO?$AA@ 10063bf8     DHCP.obj
 0002:00004c08       ??_C@_0P@EKBJLAAL@?$DM?$CFIDS_DHCP_5?$CF?$DO?$AA@ 10063c08     DHCP.obj
 0002:00004c18       ??_C@_0P@PCKFNHGO@?$DM?$CFIDS_DHCP_4?$CF?$DO?$AA@ 10063c18     DHCP.obj
 0002:00004c28       ??_C@_0BA@FELBPFAN@255?4255?4255?4255?$AA@ 10063c28     DHCP.obj
 0002:00004c38       ??_C@_0P@GPHCOPNH@?$DM?$CFIDS_DHCP_3?$CF?$DO?$AA@ 10063c38     DHCP.obj
 0002:00004c48       ??_C@_07OHKHACFK@0?40?40?40?$AA@ 10063c48     DHCP.obj
 0002:00004c50       ??_C@_0P@NHMOIILC@?$DM?$CFIDS_DHCP_2?$CF?$DO?$AA@ 10063c50     DHCP.obj
 0002:00004c60       ??_C@_0P@MFHLCHFM@?$DM?$CFIDS_DHCP_1?$CF?$DO?$AA@ 10063c60     DHCP.obj
 0002:00004c70       ??_C@_0P@DMPMFOLL@?$DM?$CFIDS_DNS_15?$CF?$DO?$AA@ 10063c70     DNS.obj
 0002:00004c80       ??_C@_0P@IEEADJNO@?$DM?$CFIDS_DNS_14?$CF?$DO?$AA@ 10063c80     DNS.obj
 0002:00004c90       ??_C@_0O@EKJIIDC@?$DM?$CFIDS_DNS_5?$CF?$DO?$AA@ 10063c90     DNS.obj
 0002:00004ca0       ??_C@_0O@BGBMCHNM@?$DM?$CFIDS_DNS_6?$CF?$DO?$AA@ 10063ca0     DNS.obj
 0002:00004cb0       ??_C@_0O@KOKAEALJ@?$DM?$CFIDS_DNS_7?$CF?$DO?$AA@ 10063cb0     DNS.obj
 0002:00004cc0       ??_C@_0P@BJJHABGH@?$DM?$CFIDS_DNS_13?$CF?$DO?$AA@ 10063cc0     DNS.obj
 0002:00004cd0       ??_C@_0P@KBCLGGAC@?$DM?$CFIDS_DNS_12?$CF?$DO?$AA@ 10063cd0     DNS.obj
 0002:00004ce0       ??_C@_0P@LDJOMJOM@?$DM?$CFIDS_DNS_11?$CF?$DO?$AA@ 10063ce0     DNS.obj
 0002:00004cf0       ??_C@_0O@EOHPDHIK@?$DM?$CFIDS_DNS_9?$CF?$DO?$AA@ 10063cf0     DNS.obj
 0002:00004d00       ??_C@_0BD@HKCILEBM@roundTripTime?$DN?$CFld$?$AA@ 10063d00     DNS.obj
 0002:00004d14       ??_C@_0O@PGMDFAOP@?$DM?$CFIDS_DNS_8?$CF?$DO?$AA@ 10063d14     DNS.obj
 0002:00004d24       ??_C@_0O@CBMCNHOO@?$DM?$CFIDS_DNS_3?$CF?$DO?$AA@ 10063d24     DNS.obj
 0002:00004d34       ??_C@_0O@JJHOLAIL@?$DM?$CFIDS_DNS_2?$CF?$DO?$AA@ 10063d34     DNS.obj
 0002:00004d44       ??_C@_0O@ILMLBPGF@?$DM?$CFIDS_DNS_1?$CF?$DO?$AA@ 10063d44     DNS.obj
 0002:00004d54       ??_C@_0BE@OOKECMPA@stCreatedSessionCnt?$AA@ 10063d54     Dynamo.obj
 0002:00004d68       ??_C@_0O@EMIPEOCC@drpAvgReqTime?$AA@ 10063d68     Dynamo.obj
 0002:00004d78       ??_C@_0BB@IKJADCEM@dbTotalResources?$AA@ 10063d78     Dynamo.obj
 0002:00004d8c       ??_C@_0BA@KJHJLJBN@dbFreeResources?$AA@ 10063d8c     Dynamo.obj
 0002:00004d9c       ??_C@_07MBLONLPC@dbIndex?$AA@ 10063d9c     Dynamo.obj
 0002:00004da4       ??_C@_0L@FKBFNLNO@sysFreeMem?$AA@ 10063da4     Dynamo.obj
 0002:00004db0       ??_C@_0M@BJOGLEFO@sysTotalMem?$AA@ 10063db0     Dynamo.obj
 0002:00004dbc       ??_C@_0L@NDPPLFG@memoryUsed?$AA@ 10063dbc     F5.obj
 0002:00004dc8       ??_C@_0L@LIMEPLK@droppedout?$AA@ 10063dc8     F5.obj
 0002:00004dd4       ??_C@_09KNEDJJMC@droppedin?$AA@ 10063dd4     F5.obj
 0002:00004de0       ??_C@_08NHCEOGGP@portdeny?$AA@ 10063de0     F5.obj
 0002:00004dec       ??_C@_07OLNBINMN@pktsout?$AA@ 10063dec     F5.obj
 0002:00004df4       ??_C@_06CFGIPAMI@pktsin?$AA@ 10063df4     F5.obj
 0002:00004dfc       ??_C@_06GBMNOLHI@concur?$AA@ 10063dfc     F5.obj
 0002:00004e04       ??_C@_06MFBIOLNL@uptime?$AA@ 10063e04     F5.obj
 0002:00004e0c       ??_C@_0O@GEPEDKHA@?$DM?$CFIDS_F5_12?$CF?$DO?$AA@ 10063e0c     F5.obj
 0002:00004e1c       ??_C@_0O@HGEBJFJO@?$DM?$CFIDS_F5_11?$CF?$DO?$AA@ 10063e1c     F5.obj
 0002:00004e2c       ??_C@_0O@MOPNPCPL@?$DM?$CFIDS_F5_10?$CF?$DO?$AA@ 10063e2c     F5.obj
 0002:00004e3c       ??_C@_0N@CLBIPLDC@?$DM?$CFIDS_F5_9?$CF?$DO?$AA@ 10063e3c     F5.obj
 0002:00004e4c       ??_C@_0N@JDKEJMFH@?$DM?$CFIDS_F5_8?$CF?$DO?$AA@ 10063e4c     F5.obj
 0002:00004e5c       ??_C@_0N@MLMHIMAB@?$DM?$CFIDS_F5_7?$CF?$DO?$AA@ 10063e5c     F5.obj
 0002:00004e6c       ??_C@_0N@HDHLOLGE@?$DM?$CFIDS_F5_6?$CF?$DO?$AA@ 10063e6c     F5.obj
 0002:00004e7c       ??_C@_0N@GBMOEEIK@?$DM?$CFIDS_F5_5?$CF?$DO?$AA@ 10063e7c     F5.obj
 0002:00004e8c       ??_C@_0N@NJHCCDOP@?$DM?$CFIDS_F5_4?$CF?$DO?$AA@ 10063e8c     F5.obj
 0002:00004e9c       ??_C@_0N@EEKFBLFG@?$DM?$CFIDS_F5_3?$CF?$DO?$AA@ 10063e9c     F5.obj
 0002:00004eac       ??_C@_0N@PMBJHMDD@?$DM?$CFIDS_F5_2?$CF?$DO?$AA@ 10063eac     F5.obj
 0002:00004ebc       ??_C@_0N@OOKMNDNN@?$DM?$CFIDS_F5_1?$CF?$DO?$AA@ 10063ebc     F5.obj
 0002:00004ecc       ??_C@_07CMOEPEOJ@?$CFs?$CFd$$$?$AA@ 10063ecc     Foundry.obj
 0002:00004ed4       ??_C@_0BE@OJPDCKLG@snAgentCpuUtilValue?$AA@ 10063ed4     Foundry.obj
 0002:00004ee8       ??_C@_0BH@GLHLJDJF@snAgentCpuUtilInterval?$AA@ 10063ee8     Foundry.obj
 0002:00004f00       ??_C@_0BE@POBDDCAM@snAgentCpuUtilCpuId?$AA@ 10063f00     Foundry.obj
 0002:00004f14       ??_C@_0BG@OLNIKMP@snAgentCpuUtilSlotNum?$AA@ 10063f14     Foundry.obj
 0002:00004f2c       ??_C@_0P@GFLKMME@?$DM?$CFIDS_FTP_21?$CF?$DO?$AA@ 10063f2c     FTP.obj
 0002:00004f3c       ??_C@_0P@LOOHMLKB@?$DM?$CFIDS_FTP_20?$CF?$DO?$AA@ 10063f3c     FTP.obj
 0002:00004f4c       ??_C@_0P@IEEPPOPL@?$DM?$CFIDS_FTP_19?$CF?$DO?$AA@ 10063f4c     FTP.obj
 0002:00004f5c       ??_C@_0P@DMPDJJJO@?$DM?$CFIDS_FTP_18?$CF?$DO?$AA@ 10063f5c     FTP.obj
 0002:00004f6c       ??_C@_0BC@NJFLKMFH@?$CFd?0?$CFd?0?$CFd?0?$CFd?0?$CFd?0?$CFd?$AA@ 10063f6c     FTP.obj
 0002:00004f80       ??_C@_06OGKAIOED@PASV?$AN?6?$AA@ 10063f80     FTP.obj
 0002:00004f88       ??_C@_0N@FIEAPOII@Select?5Error?$AA@ 10063f88     FTP.obj
 0002:00004f98       ??_C@_07MKALMBDJ@Timeout?$AA@ 10063f98     FTP.obj
 0002:00004fa0       ??_C@_0BE@EIEJIHJF@Receive?5Data?5Error?4?$AA@ 10063fa0     FTP.obj
 0002:00004fb4       ??_C@_0CO@CKHGEJD@roundTripTime?$DN?$CF?43f$bytes?$DN?$CFld$byt@ 10063fb4     FTP.obj
 0002:00004fe8       __real@3f50624dd2f1a9fc    10063fe8     FTP.obj
 0002:00004ff0       __real@3f50000000000000    10063ff0     FTP.obj
 0002:00004ff8       ??_C@_0P@KMLPHFGA@Unknown?5Error?4?$AA@ 10063ff8     FTP.obj
 0002:00005008       ??_C@_0P@ICBNKEMG@error?$DN?$CFs?5?$FL?$CFd?$FN$?$AA@ 10064008     FTP.obj
 0002:00005018       ??_C@_0BG@JAOIGKL@Receive?5Data?5Timeout?4?$AA@ 10064018     FTP.obj
 0002:00005030       ??_C@_0BB@OGMIOPFH@Send?5Data?5Error?4?$AA@ 10064030     FTP.obj
 0002:00005044       ??_C@_0BI@FJKEMIAD@Resolve?5Hostname?5Error?4?$AA@ 10064044     FTP.obj
 0002:0000505c       ??_C@_0BF@GECNFALI@Create?5Socket?5Error?4?$AA@ 1006405c     FTP.obj
 0002:00005074       ??_C@_0P@GEJAIJMI@?$DM?$CFIDS_FTP_17?$CF?$DO?$AA@ 10064074     FTP.obj
 0002:00005084       ??_C@_0P@NMCMOOKN@?$DM?$CFIDS_FTP_16?$CF?$DO?$AA@ 10064084     FTP.obj
 0002:00005094       ??_C@_09NFIHFDPP@RETR?5?$CFs?$AN?6?$AA@ 10064094     FTP.obj
 0002:000050a0       ??_C@_0P@MOJJEBED@?$DM?$CFIDS_FTP_15?$CF?$DO?$AA@ 100640a0     FTP.obj
 0002:000050b0       ??_C@_0BA@CNCKFLMI@PORT?5?$CFs?0?$CFd?0?$CFd?$AN?6?$AA@ 100640b0     FTP.obj
 0002:000050c0       ??_C@_0P@HGCFCGCG@?$DM?$CFIDS_FTP_14?$CF?$DO?$AA@ 100640c0     FTP.obj
 0002:000050d0       ??_C@_0P@OLPCBOJP@?$DM?$CFIDS_FTP_13?$CF?$DO?$AA@ 100640d0     FTP.obj
 0002:000050e0       ??_C@_0P@FDEOHJPK@?$DM?$CFIDS_FTP_12?$CF?$DO?$AA@ 100640e0     FTP.obj
 0002:000050f0       ??_C@_0P@EBPLNGBE@?$DM?$CFIDS_FTP_11?$CF?$DO?$AA@ 100640f0     FTP.obj
 0002:00005100       ??_C@_0P@PJEHLBHB@?$DM?$CFIDS_FTP_10?$CF?$DO?$AA@ 10064100     FTP.obj
 0002:00005110       ??_C@_08NFILCCME@TYPE?5I?$AN?6?$AA@ 10064110     FTP.obj
 0002:0000511c       ??_C@_0O@EJGAIBNJ@?$DM?$CFIDS_FTP_9?$CF?$DO?$AA@ 1006411c     FTP.obj
 0002:0000512c       ??_C@_09CACMNAGD@PASS?5?$CFs?$AN?6?$AA@ 1006412c     FTP.obj
 0002:00005138       ??_C@_0O@PBNMOGLM@?$DM?$CFIDS_FTP_8?$CF?$DO?$AA@ 10064138     FTP.obj
 0002:00005148       ??_C@_09FIJAECMI@USER?5?$CFs?$AN?6?$AA@ 10064148     FTP.obj
 0002:00005154       ??_C@_0N@NGBGKMKP@USER?5?$CFs?$EA?$CFs?$AN?6?$AA@ 10064154     FTP.obj
 0002:00005164       ??_C@_0O@KJLPPGOK@?$DM?$CFIDS_FTP_7?$CF?$DO?$AA@ 10064164     FTP.obj
 0002:00005174       ??_C@_0O@BBADJBIP@?$DM?$CFIDS_FTP_6?$CF?$DO?$AA@ 10064174     FTP.obj
 0002:00005184       ??_C@_0O@DLGDOGB@?$DM?$CFIDS_FTP_5?$CF?$DO?$AA@ 10064184     FTP.obj
 0002:00005194       ??_C@_0O@JOGBAGNI@?$DM?$CFIDS_FTP_2?$CF?$DO?$AA@ 10064194     FTP.obj
 0002:000051a4       ??_C@_0O@IMNEKJDG@?$DM?$CFIDS_FTP_1?$CF?$DO?$AA@ 100641a4     FTP.obj
 0002:000051b4       ??_C@_0O@CGNNGBLN@?$DM?$CFIDS_FTP_3?$CF?$DO?$AA@ 100641b4     FTP.obj
 0002:000051c4       ??_C@_0O@LLAKFJAE@?$DM?$CFIDS_FTP_4?$CF?$DO?$AA@ 100641c4     FTP.obj
 0002:000051d4       ??_C@_0BF@LEHDKNNE@?$CFskbytesPerSec?$DN?$CF?43f$?$AA@ 100641d4     FTP.obj
 0002:000051ec       ??_C@_0BO@FFDGLGIH@roundTripTime?$DN?$CF?43f$bytes?$DN?$CFld$?$AA@ 100641ec     FTP.obj
 0002:0000520c       ??_C@_01ICJEACDI@?$DL?$AA@ 1006420c     funcGeneral.obj
 0002:00005210       ??_C@_0M@KEDFDEMF@root_path_7?$AA@ 10064210     funcGeneral.obj
 0002:0000521c       ??_C@_0BO@JOODGAEE@SOFTWARE?2siteview?2siteviewecc?$AA@ 1006421c     funcGeneral.obj
 0002:0000523c       ??_C@_0BG@KFDBAEJB@?$CFs?2data?2TmpIniFile?2?$CFs?$AA@ 1006423c     funcGeneral.obj
 0002:00005254       ??_C@_0L@HPMGBIOI@ServerHost?$AA@ 10064254     funcGeneral.obj
 0002:00005260       ??_C@_09IPAEKDAI@localhost?$AA@ 10064260     funcGeneral.obj
 0002:0000526c       ??_C@_0BA@GGPFGLLN@MonitorSchedule?$AA@ 1006426c     funcGeneral.obj
 0002:0000527c       ??_C@_04BPKCJLI@SEID?$AA@  1006427c     funcGeneral.obj
 0002:00005284       ??_C@_0BG@BFJACLLI@?$CFs?2fcgi?9bin?2mc?4config?$AA@ 10064284     funcGeneral.obj
 0002:0000529c       ??_C@_07DLHCIBDH@default?$AA@ 1006429c     funcGeneral.obj
 0002:000052a4       ??_C@_09BMHOOPHN@oscmd?4ini?$AA@ 100642a4     funcGeneral.obj
 0002:000052b0       ??_C@_05ONEOBAM@?$CFs_?$CFs?$AA@ 100642b0     funcGeneral.obj
 0002:000052b8       ??_C@_01NEMOKFLO@?$DN?$AA@ 100642b8     funcGeneral.obj
 0002:000052bc       ??_C@_01JLIPDDHJ@?3?$AA@   100642bc     funcGeneral.obj
 0002:000052c0       ??_C@_0BA@LNKFJFBF@?$DM?$CFIDS_Utils_1?$CF?$DO?$AA@ 100642c0     HttpMonitor.obj
 0002:000052d0       ??_C@_0BG@EPHDEOFO@Authorization?3?5Basic?5?$AA@ 100642d0     HttpMonitor.obj
 0002:000052e8       ??_C@_0BM@FIOMLIMJ@Proxy?9Authorization?3?5Basic?5?$AA@ 100642e8     HttpMonitor.obj
 0002:00005304       ??_C@_05CCMOGDN@?$CFs?3?$CFs?$AA@ 10064304     HttpMonitor.obj
 0002:0000530c       ??_C@_05DFPCBGAP@?$CFs?$DP?$CFs?$AA@ 1006430c     HttpMonitor.obj
 0002:00005314       ??_C@_0BD@PNICLLGP@echo?5?$CFs?$DL?$CFs?$DLecho?5?$CFs?$AA@ 10064314     HttpMonitor.obj
 0002:00005328       ??_C@_0L@GGMKBMHB@DF?9CMD?9STA?$AA@ 10064328     HttpMonitor.obj
 0002:00005334       ??_C@_0L@HPHOMGNB@DF?9CMD?9END?$AA@ 10064334     HttpMonitor.obj
 0002:00005340       ??_C@_07GCLLLCGE@WinInet?$AA@ 10064340     HttpMonitor.obj
 0002:00005348       ??_C@_05HKPGCKL@?$CFs?3?$CFd?$AA@ 10064348     HttpMonitor.obj
 0002:00005350       ??_C@_0BG@ECIJBAHK@?$DM?$CFIDS_TelMonitor_16?$CF?$DO?$AA@ 10064350     HttpMonitor.obj
 0002:00005368       ??_7CFileException@@6B@    10064368     IEEvents.obj
 0002:00005384       ??_C@_05JEBCCMKH@?$CFd$$$?$AA@ 10064384     Interfaces.obj
 0002:0000538c       ??_C@_07CIFAGBMG@unknown?$AA@ 1006438c     Interfaces.obj
 0002:00005394       ??_C@_07MEHGEGBN@testing?$AA@ 10064394     Interfaces.obj
 0002:0000539c       ??_C@_04JMOKAGMG@down?$AA@ 1006439c     Interfaces.obj
 0002:000053a4       ??_C@_02HNLLPFKA@up?$AA@   100643a4     Interfaces.obj
 0002:000053a8       ??_C@_0BH@NLPGOIAJ@?$CFs?$CFd?$DN?$CFd_?$CFs_?$CFs_?$CFs_?$CFs$$$?$AA@ 100643a8     Interfaces.obj
 0002:000053c0       ??_C@_0M@JBEDJLJA@frame?9relay?$AA@ 100643c0     Interfaces.obj
 0002:000053cc       ??_C@_03MPAIKGMI@sip?$AA@  100643cc     Interfaces.obj
 0002:000053d0       ??_C@_03MICDPDIO@ds3?$AA@  100643d0     Interfaces.obj
 0002:000053d4       ??_C@_05IGNOIJHB@ultra?$AA@ 100643d4     Interfaces.obj
 0002:000053dc       ??_C@_04JOGGFDBP@slip?$AA@ 100643dc     Interfaces.obj
 0002:000053e4       ??_C@_04OGMEHOF@nsip?$AA@  100643e4     Interfaces.obj
 0002:000053ec       ??_C@_0P@IEEGPAH@ethernet?93Mbit?$AA@ 100643ec     Interfaces.obj
 0002:000053fc       ??_C@_03GKLGONOG@eon?$AA@  100643fc     Interfaces.obj
 0002:00005400       ??_C@_0BB@CLCDKCGN@softwareLoopback?$AA@ 10064400     Interfaces.obj
 0002:00005414       ??_C@_03MOEKJBNJ@ppp?$AA@  10064414     Interfaces.obj
 0002:00005418       ??_C@_0BH@BAJLBACP@propPointToPointSerial?$AA@ 10064418     Interfaces.obj
 0002:00005430       ??_C@_0M@FIFJPKNC@primaryISDN?$AA@ 10064430     Interfaces.obj
 0002:0000543c       ??_C@_09KFNMOJHB@basicISDN?$AA@ 1006443c     Interfaces.obj
 0002:00005448       ??_C@_02IIPPCIJE@e1?$AA@   10064448     Interfaces.obj
 0002:0000544c       ??_C@_03PKBFJBAM@ds1?$AA@  1006444c     Interfaces.obj
 0002:00005450       ??_C@_04DMPGPIIJ@sdlc?$AA@ 10064450     Interfaces.obj
 0002:00005458       ??_C@_04OFLPGDLN@lapb?$AA@ 10064458     Interfaces.obj
 0002:00005460       ??_C@_04GAAKFJEJ@fddi?$AA@ 10064460     Interfaces.obj
 0002:00005468       ??_C@_0N@FFBLGAOG@hyperchannel?$AA@ 10064468     Interfaces.obj
 0002:00005478       ??_C@_0P@HOOMKPDP@proteon?980Mbit?$AA@ 10064478     Interfaces.obj
 0002:00005488       ??_C@_0P@OLHEOKOM@proteon?910Mbit?$AA@ 10064488     Interfaces.obj
 0002:00005498       ??_C@_07IDDGCNDG@starLan?$AA@ 10064498     Interfaces.obj
 0002:000054a0       ??_C@_0N@CNLMNINE@iso88026?9man?$AA@ 100644a0     Interfaces.obj
 0002:000054b0       ??_C@_0BD@PMGENBBE@iso88025?9tokenRing?$AA@ 100644b0     Interfaces.obj
 0002:000054c4       ??_C@_0BC@HFEICCPH@iso88024?9tokenBus?$AA@ 100644c4     Interfaces.obj
 0002:000054d8       ??_C@_0BA@NKDKIBJP@iso88023?9csmacd?$AA@ 100644d8     Interfaces.obj
 0002:000054e8       ??_C@_0BA@NMNFPKMO@ethernet?9csmacd?$AA@ 100644e8     Interfaces.obj
 0002:000054f8       ??_C@_0L@LLLGBIPI@rfc877?9x25?$AA@ 100644f8     Interfaces.obj
 0002:00005504       ??_C@_07JBHPBIIF@ddn?9x25?$AA@ 10064504     Interfaces.obj
 0002:0000550c       ??_C@_07GBMMFKKO@hdh1822?$AA@ 1006450c     Interfaces.obj
 0002:00005514       ??_C@_0M@GLPJPPIK@regular1822?$AA@ 10064514     Interfaces.obj
 0002:00005520       ??_C@_05BGEKGIIP@other?$AA@ 10064520     Interfaces.obj
 0002:00005528       ??_C@_0BB@JAJFCFAA@interface?5is?5?$CFd?6?$AA@ 10064528     Interfaces.obj
 0002:0000553c       __real@41000000            1006453c     Interfaces.obj
 0002:00005540       ??_C@_0M@HIBDJMHA@ifIndex_?$CFld?$AA@ 10064540     Interfaces.obj
 0002:0000554c       ??_C@_0P@MMFOCEMA@snmp_?$CFs_?$CFs?4ini?$AA@ 1006454c     Interfaces.obj
 0002:0000555c       ??_C@_0BC@MCNMMJCC@?$DM?$CFIDS_Traffic_3?$CF?$DO?$AA@ 1006455c     Interfaces.obj
 0002:00005570       ??_C@_0BC@HKGAKOEH@?$DM?$CFIDS_Traffic_2?$CF?$DO?$AA@ 10064570     Interfaces.obj
 0002:00005584       ??_C@_0BC@GINFABKJ@?$DM?$CFIDS_Traffic_1?$CF?$DO?$AA@ 10064584     Interfaces.obj
 0002:00005598       ??_C@_0KN@FOKDMOME@totalRequests?$DN?$CFd$badRequests?$DN?$CFd$@ 10064598     iPlanet.obj
 0002:00005648       ??_C@_0BD@ICMIFINE@?$DM?$CFIDS_iPlanet_24?$CF?$DO?$AA@ 10064648     iPlanet.obj
 0002:0000565c       ??_C@_0BD@BPBPGAGN@?$DM?$CFIDS_iPlanet_23?$CF?$DO?$AA@ 1006465c     iPlanet.obj
 0002:00005670       ??_C@_03HBPCMPLF@403?$AA@  10064670     iPlanet.obj
 0002:00005674       ??_C@_0BD@KHKDAHAI@?$DM?$CFIDS_iPlanet_22?$CF?$DO?$AA@ 10064674     iPlanet.obj
 0002:00005688       ??_C@_0BD@LFBGKIOG@?$DM?$CFIDS_iPlanet_21?$CF?$DO?$AA@ 10064688     iPlanet.obj
 0002:0000569c       ??_C@_03EDMEKNDH@401?$AA@  1006469c     iPlanet.obj
 0002:000056a0       ??_C@_0BD@NKKMPID@?$DM?$CFIDS_iPlanet_20?$CF?$DO?$AA@ 100646a0     iPlanet.obj
 0002:000056b4       ??_C@_0BD@DHACPKNJ@?$DM?$CFIDS_iPlanet_19?$CF?$DO?$AA@ 100646b4     iPlanet.obj
 0002:000056c8       ??_C@_03KDGEGBML@304?$AA@  100646c8     iPlanet.obj
 0002:000056cc       ??_C@_0BD@IPLOJNLM@?$DM?$CFIDS_iPlanet_18?$CF?$DO?$AA@ 100646cc     iPlanet.obj
 0002:000056e0       ??_C@_0BD@NHNNINOK@?$DM?$CFIDS_iPlanet_17?$CF?$DO?$AA@ 100646e0     iPlanet.obj
 0002:000056f4       ??_C@_03PFDOMGEN@302?$AA@  100646f4     iPlanet.obj
 0002:000056f8       ??_C@_0BD@GPGBOKIP@?$DM?$CFIDS_iPlanet_16?$CF?$DO?$AA@ 100646f8     iPlanet.obj
 0002:0000570c       ??_C@_0BD@HNNEEFGB@?$DM?$CFIDS_iPlanet_15?$CF?$DO?$AA@ 1006470c     iPlanet.obj
 0002:00005720       ??_C@_03HPLEMDKK@200?$AA@  10064720     iPlanet.obj
 0002:00005724       ??_C@_0BD@MFGICCAE@?$DM?$CFIDS_iPlanet_14?$CF?$DO?$AA@ 10064724     iPlanet.obj
 0002:00005738       ??_C@_0BD@FILPBKLN@?$DM?$CFIDS_iPlanet_13?$CF?$DO?$AA@ 10064738     iPlanet.obj
 0002:0000574c       ??_C@_03MNDEGCIG@xxx?$AA@  1006474c     iPlanet.obj
 0002:00005750       ??_C@_0BD@OAADHNNI@?$DM?$CFIDS_iPlanet_12?$CF?$DO?$AA@ 10064750     iPlanet.obj
 0002:00005764       ??_C@_0BD@PCLGNCDG@?$DM?$CFIDS_iPlanet_11?$CF?$DO?$AA@ 10064764     iPlanet.obj
 0002:00005778       ??_C@_03KEEKOCGG@5xx?$AA@  10064778     iPlanet.obj
 0002:0000577c       ??_C@_0BD@EKAKLFFD@?$DM?$CFIDS_iPlanet_10?$CF?$DO?$AA@ 1006477c     iPlanet.obj
 0002:00005790       ??_C@_0BC@GCBOINCB@?$DM?$CFIDS_iPlanet_9?$CF?$DO?$AA@ 10064790     iPlanet.obj
 0002:000057a4       ??_C@_03BMPGIFAD@4xx?$AA@  100647a4     iPlanet.obj
 0002:000057a8       ??_C@_0BC@NKKCOKEE@?$DM?$CFIDS_iPlanet_8?$CF?$DO?$AA@ 100647a8     iPlanet.obj
 0002:000057bc       ??_C@_0BC@ICMBPKBC@?$DM?$CFIDS_iPlanet_7?$CF?$DO?$AA@ 100647bc     iPlanet.obj
 0002:000057d0       ??_C@_03IBCBLNLK@3xx?$AA@  100647d0     iPlanet.obj
 0002:000057d4       ??_C@_0BC@DKHNJNHH@?$DM?$CFIDS_iPlanet_6?$CF?$DO?$AA@ 100647d4     iPlanet.obj
 0002:000057e8       ??_C@_0BC@CIMIDCJJ@?$DM?$CFIDS_iPlanet_5?$CF?$DO?$AA@ 100647e8     iPlanet.obj
 0002:000057fc       ??_C@_03DJJNNKNP@2xx?$AA@  100647fc     iPlanet.obj
 0002:00005800       ??_C@_0BC@JAHEFFPM@?$DM?$CFIDS_iPlanet_4?$CF?$DO?$AA@ 10064800     iPlanet.obj
 0002:00005814       ??_C@_0L@PDDGGEBN@?$CFs?5?$CFd?$CF?$CF?5?$CFd?$AA@ 10064814     iPlanet.obj
 0002:00005820       ??_C@_0BC@NKDGNEF@?$DM?$CFIDS_iPlanet_3?$CF?$DO?$AA@ 10064820     iPlanet.obj
 0002:00005834       ??_C@_0N@KKJPAPPC@bad?5requests?$AA@ 10064834     iPlanet.obj
 0002:00005844       ??_C@_0BC@LFBPAKCA@?$DM?$CFIDS_iPlanet_2?$CF?$DO?$AA@ 10064844     iPlanet.obj
 0002:00005858       ??_C@_0BC@KHKKKFMO@?$DM?$CFIDS_iPlanet_1?$CF?$DO?$AA@ 10064858     iPlanet.obj
 0002:0000586c       ??_C@_0P@IKHAFGMF@total?5requests?$AA@ 1006486c     iPlanet.obj
 0002:0000587c       ??_C@_0P@DBPBBGHF@?$DM?$CFIDS_LDAP_5?$CF?$DO?$AA@ 1006487c     LDAP.obj
 0002:0000588c       ??_C@_06DJHOIPC@?$CFs?3?5?$CFs?$AA@ 1006488c     LDAP.obj
 0002:00005894       ??_C@_0P@IJENHBBA@?$DM?$CFIDS_LDAP_4?$CF?$DO?$AA@ 10064894     LDAP.obj
 0002:000058a4       ??_C@_0P@BEJKEJKJ@?$DM?$CFIDS_LDAP_3?$CF?$DO?$AA@ 100648a4     LDAP.obj
 0002:000058b4       ??_C@_0BA@DBNGDJMM@?$CIobjectclass?$DN?$CK?$CJ?$AA@ 100648b4     LDAP.obj
 0002:000058c4       ??_C@_0P@IGMBHMKE@error?$DN?$CFs?$CI?$CFld?$CJ$?$AA@ 100648c4     LDAP.obj
 0002:000058d4       ??_C@_0P@KMCGCOMM@?$DM?$CFIDS_LDAP_2?$CF?$DO?$AA@ 100648d4     LDAP.obj
 0002:000058e4       ??_C@_0P@LOJDIBCC@?$DM?$CFIDS_LDAP_1?$CF?$DO?$AA@ 100648e4     LDAP.obj
 0002:000058f4       ??_C@_0BM@DAFDJKHJ@?$CFd?9?$CF02d?9?$CF02d?5?$CF02d?3?$CF02d?3?$CF02d?$AA@ 100648f4     LogFile.obj
 0002:00005910       ??_C@_04LLEBNMDN@?$CFs?$AN?6?$AA@ 10064910     LogFile.obj
 0002:00005918       ??_C@_0N@IGFHMGJB@?$CFs?2?$CFs?2?$CFs?4txt?$AA@ 10064918     LogFile.obj
 0002:00005928       ??_C@_09FPKNPJGM@data?2Temp?$AA@ 10064928     LogFile.obj
 0002:00005934       ??_C@_0O@CEKHDIIE@?$FLTime?5is?$CFs?$FN?$AN?6?$AA@ 10064934     LogFile.obj
 0002:00005944       ??_C@_0CD@KHNAEFGM@IDS_SysLog_Monitor_ExpressionErr@ 10064944     LogFile.obj
 0002:00005968       ??_C@_04IAGNFIBA@size?$AA@ 10064968     LogFile.obj
 0002:00005970       ??_C@_0L@FPBBFMP@filedetail?$AA@ 10064970     LogFile.obj
 0002:0000597c       ??_C@_09KENHOFGC@fileexist?$AA@ 1006497c     LogFile.obj
 0002:00005988       ??_C@_0BL@GDABDEFI@totalline?$DN?$CFld$matches?$DN?$CFld$?$AA@ 10064988     LogFile.obj
 0002:000059a4       ??_C@_01HIHLOKLC@1?$AA@    100649a4     LogFile.obj
 0002:000059a8       ??_C@_07GPGDOLCL@?$DMbytes?$DO?$AA@ 100649a8     LogFile.obj
 0002:000059b0       ??_C@_04NEODDMOL@head?$AA@ 100649b0     LogFile.obj
 0002:000059b8       ??_C@_04DIFLAKIP@tail?$AA@ 100649b8     LogFile.obj
 0002:000059c0       ??_C@_0BJ@INBMHDPM@totalline?$DN?$CFd$matches?$DN?$CFd$?$AA@ 100649c0     LogFile.obj
 0002:000059dc       ??_C@_04LOAJBDKD@true?$AA@ 100649dc     LogFile.obj
 0002:000059e4       ??_C@_05LAPONLG@false?$AA@ 100649e4     LogFile.obj
 0002:000059ec       ??_C@_0M@OKAGMKDO@?9?9?9?9?9?9?9?9?$CFd?6?$AA@ 100649ec     LogFile.obj
 0002:000059f8       ??_C@_0BH@LAOAAHLC@totalline?$DN0$matches?$DN0$?$AA@ 100649f8     LogFile.obj
 0002:00005a10       ??_C@_0BB@EOBBNLBM@size?5is?5?5?$CFd?9?9?$CFd?6?$AA@ 10064a10     LogFile.obj
 0002:00005a24       ??_C@_0BD@LDIDJBKN@?$DM?$CFIDS_LOGFILE_03?$CF?$DO?$AA@ 10064a24     LogFile.obj
 0002:00005a38       ??_C@_0L@FLNFJJMG@DragonFlow?$AA@ 10064a38     MailMessage.obj
 0002:00005a44       ??_C@_01PPODPGHN@?$DO?$AA@ 10064a44     MailMessage.obj
 0002:00005a48       ??_7CMAPIProto@@6B@        10064a48     MAPIProto.obj
 0002:00005a4c       ??_C@_0BA@FJBNABJG@MAPIResolveName?$AA@ 10064a4c     MAPIProto.obj
 0002:00005a5c       ??_C@_0M@CCOBNFNO@MAPIAddress?$AA@ 10064a5c     MAPIProto.obj
 0002:00005a68       ??_C@_0P@PHMAHFGM@MAPIFreeBuffer?$AA@ 10064a68     MAPIProto.obj
 0002:00005a78       ??_C@_0N@GMEBFHNB@MAPIReadMail?$AA@ 10064a78     MAPIProto.obj
 0002:00005a88       ??_C@_0N@GLLHJNJD@MAPIFindNext?$AA@ 10064a88     MAPIProto.obj
 0002:00005a98       ??_C@_0N@INHCDDHL@MAPISendMail?$AA@ 10064a98     MAPIProto.obj
 0002:00005aa8       ??_C@_0L@PBPPHLOM@MAPILogoff?$AA@ 10064aa8     MAPIProto.obj
 0002:00005ab4       ??_C@_09EHJBOALE@MAPILogon?$AA@ 10064ab4     MAPIProto.obj
 0002:00005ac0       ??_C@_0L@CDKONNBO@MAPI32?4DLL?$AA@ 10064ac0     MAPIProto.obj
 0002:00005acc       ??_C@_0BA@KLHNCLPM@SUCCESS_SUCCESS?$AA@ 10064acc     MAPIProto.obj
 0002:00005adc       ??_C@_0P@BHMBMPIL@MAPI_E_UNKNOWN?$AA@ 10064adc     MAPIProto.obj
 0002:00005aec       ??_C@_0BC@HJNOICND@MAPI_E_USER_ABORT?$AA@ 10064aec     MAPIProto.obj
 0002:00005b00       ??_C@_0BJ@IILJLFKH@MAPI_E_UNKNOWN_RECIPIENT?$AA@ 10064b00     MAPIProto.obj
 0002:00005b1c       ??_C@_0BL@OHDPHNLJ@MAPI_E_TOO_MANY_RECIPIENTS?$AA@ 10064b1c     MAPIProto.obj
 0002:00005b38       ??_C@_0BG@FHCLABBC@MAPI_E_TOO_MANY_FILES?$AA@ 10064b38     MAPIProto.obj
 0002:00005b50       ??_C@_0BG@JJHJONPO@MAPI_E_TEXT_TOO_LARGE?$AA@ 10064b50     MAPIProto.obj
 0002:00005b68       ??_C@_0BF@DPNLBJJA@MAPI_E_LOGIN_FAILURE?$AA@ 10064b68     MAPIProto.obj
 0002:00005b80       ??_C@_0BG@KFCLBJLM@MAPI_E_INVALID_RECIPS?$AA@ 10064b80     MAPIProto.obj
 0002:00005b98       ??_C@_0BL@KFGLBEOH@MAPI_E_INSUFFICIENT_MEMORY?$AA@ 10064b98     MAPIProto.obj
 0002:00005bb4       ??_C@_0P@POCONHBK@MAPI_E_FAILURE?$AA@ 10064bb4     MAPIProto.obj
 0002:00005bc4       ??_C@_0BF@HNBDJBJE@MAPI_E_BAD_RECIPTYPE?$AA@ 10064bc4     MAPIProto.obj
 0002:00005bdc       ??_C@_0BP@LCBGDAKL@MAPI_E_ATTACHMENT_OPEN_FAILURE?$AA@ 10064bdc     MAPIProto.obj
 0002:00005bfc       ??_C@_0BM@KGIBNLJL@MAPI_E_ATTACHMENT_NOT_FOUND?$AA@ 10064bfc     MAPIProto.obj
 0002:00005c18       ??_C@_0BL@FFLJFGBL@MAPI_E_AMBIGUOUS_RECIPIENT?$AA@ 10064c18     MAPIProto.obj
 0002:00005c34       ??_C@_0BF@GODEOKIG@MAPI_E_NOT_SUPPORTED?$AA@ 10064c34     MAPIProto.obj
 0002:00005c4c       ??_C@_0BJ@FNFBMJIN@MAPI_E_TOO_MANY_SESSIONS?$AA@ 10064c4c     MAPIProto.obj
 0002:00005c68       ??_C@_0BH@HBIJHJBC@MAPI_E_INVALID_SESSION?$AA@ 10064c68     MAPIProto.obj
 0002:00005c80       ??_C@_0BD@EAFHBLF@MAPI_E_NO_MESSAGES?$AA@ 10064c80     MAPIProto.obj
 0002:00005c94       ??_C@_0BH@DAOLPKJH@MAPI_E_INVALID_MESSAGE?$AA@ 10064c94     MAPIProto.obj
 0002:00005cac       ??_C@_0BB@HOMFBDNM@MAPI_E_DISK_FULL?$AA@ 10064cac     MAPIProto.obj
 0002:00005cc0       ??_C@_0CA@BKNKLG@MAPI_E_ATTACHMENT_WRITE_FAILURE?$AA@ 10064cc0     MAPIProto.obj
 0002:00005ce0       ??_7CMIMECode@@6B@         10064ce0     MIMECode.obj
 0002:00005cfc       ??_7CCriticalSection@@6B@  10064cfc     MIMEMessage.obj
 0002:00005d2c       ??_7?$CList@PAVCMIMEContentAgent@@PAV1@@@6B@ 10064d2c     MIMEMessage.obj
 0002:00005d40       ??_7CMIMETypeManager@CMIMEMessage@@6B@ 10064d40     MIMEMessage.obj
 0002:00005d44       ?messageMap@CMonitorApp@@1UAFX_MSGMAP@@B 10064d44     monitor.obj
 0002:00005d4c       ?_messageEntries@CMonitorApp@@0QBUAFX_MSGMAP_ENTRY@@B 10064d4c     monitor.obj
 0002:00005d64       ??_7logic_error@std@@6B@   10064d64     monitor.obj
 0002:00005d6c       ??_7length_error@std@@6B@  10064d6c     monitor.obj
 0002:00005d78       ??_7CMonitorApp@@6B@       10064d78     monitor.obj
 0002:00005e38       ??_C@_0BD@MAJAOIPC@?$DM?$CFIDS_Monitor_83?$CF?$DO?$AA@ 10064e38     monitor.obj
 0002:00005e4c       ??_C@_0BD@GKJJCAHJ@?$DM?$CFIDS_Monitor_81?$CF?$DO?$AA@ 10064e4c     monitor.obj
 0002:00005e60       ??_C@_0BD@NCCFEHBM@?$DM?$CFIDS_Monitor_80?$CF?$DO?$AA@ 10064e60     monitor.obj
 0002:00005e74       ??_C@_0BD@CNHNJPEH@?$DM?$CFIDS_Monitor_79?$CF?$DO?$AA@ 10064e74     monitor.obj
 0002:00005e88       ??_C@_0N@LECHNAKH@_PriKeyPath?$DN?$AA@ 10064e88     monitor.obj
 0002:00005e98       ??_C@_0L@JCGLOPMM@?$CFs?2?$CFs?2temp?$AA@ 10064e98     monitor.obj
 0002:00005ea4       ??_C@_0P@HLIAFBEL@_CustomerPath?$DN?$AA@ 10064ea4     monitor.obj
 0002:00005eb4       ??_C@_0M@DFAAJGFD@_MonitorID?$DN?$AA@ 10064eb4     monitor.obj
 0002:00005ec0       ??_C@_09CEEIIIML@_GroupID?$DN?$AA@ 10064ec0     monitor.obj
 0002:00005ecc       ??_C@_08LFDGFGLH@_OsType?$DN?$AA@ 10064ecc     monitor.obj
 0002:00005ed8       ??_C@_0L@JMIELDBN@_PassWord?$DN?$AA@ 10064ed8     monitor.obj
 0002:00005ee4       ??_C@_0O@MMDPHNLM@_UserAccount?$DN?$AA@ 10064ee4     monitor.obj
 0002:00005ef4       ??_C@_06FIMELBJB@_Port?$DN?$AA@ 10064ef4     monitor.obj
 0002:00005efc       ??_C@_0O@INBMCBCC@_MachineName?$DN?$AA@ 10064efc     monitor.obj
 0002:00005f0c       ??_C@_07OCBNCOCF@?$CFs?2temp?$AA@ 10064f0c     monitor.obj
 0002:00005f14       ??_C@_0BC@INHJNBIN@?$DM?$CFIDS_Monitor_3?$CF?$DO?$AA@ 10064f14     monitor.obj
 0002:00005f28       ??_C@_0BC@DFMFLGOI@?$DM?$CFIDS_Monitor_2?$CF?$DO?$AA@ 10064f28     monitor.obj
 0002:00005f3c       ??_C@_0BC@CHHABJAG@?$DM?$CFIDS_Monitor_1?$CF?$DO?$AA@ 10064f3c     monitor.obj
 0002:00005f50       ??_C@_0M@CIFBOCAL@_ProxyPass?$DN?$AA@ 10064f50     monitor.obj
 0002:00005f5c       ??_C@_0M@BGAMNFCO@_ProxyUser?$DN?$AA@ 10064f5c     monitor.obj
 0002:00005f68       ??_C@_0BC@NNALFNP@_ProxyServerPort?$DN?$AA@ 10064f68     monitor.obj
 0002:00005f7c       ??_C@_09LJHKEFGO@_TimeOut?$DN?$AA@ 10064f7c     monitor.obj
 0002:00005f88       ??_C@_0P@DKLBFDBB@_ServerManUrl?$DN?$AA@ 10064f88     monitor.obj
 0002:00005f98       ??_C@_0BF@NDNBNGGA@URL_PROXY_PORT_ERROR?$AA@ 10064f98     monitor.obj
 0002:00005fb0       ??_C@_0BI@HOJDDBOM@URL_TIMEOUT_VALUE_ERROR?$AA@ 10064fb0     monitor.obj
 0002:00005fc8       ??_C@_06NPBNGFBM@SV_URL?$AA@ 10064fc8     monitor.obj
 0002:00005fd0       ??_C@_0BB@HAIGDMGK@URL_LOST_ADDRESS?$AA@ 10064fd0     monitor.obj
 0002:00005fe4       ??_C@_0BD@LHEANJOD@?$DM?$CFIDS_Monitor_33?$CF?$DO?$AA@ 10064fe4     monitor.obj
 0002:00005ff8       ??_C@_0BD@PPMLOIG@?$DM?$CFIDS_Monitor_32?$CF?$DO?$AA@ 10064ff8     monitor.obj
 0002:0000600c       ??_C@_0BD@BNEJBBGI@?$DM?$CFIDS_Monitor_31?$CF?$DO?$AA@ 1006500c     monitor.obj
 0002:00006020       ??_C@_0BD@OFJNBADH@?$DM?$CFIDS_Monitor_29?$CF?$DO?$AA@ 10065020     monitor.obj
 0002:00006034       ??_C@_0BD@FNCBHHFC@?$DM?$CFIDS_Monitor_28?$CF?$DO?$AA@ 10065034     monitor.obj
 0002:00006048       ??_C@_07KFPGDIJG@_Index?$DN?$AA@ 10065048     monitor.obj
 0002:00006050       ??_C@_0N@LLLHDPBC@_RetryDelay?$DN?$AA@ 10065050     monitor.obj
 0002:00006060       ??_C@_0M@IOFIKHFH@_Community?$DN?$AA@ 10065060     monitor.obj
 0002:0000606c       ??_C@_06EOMAMIIF@public?$AA@ 1006506c     monitor.obj
 0002:00006074       ??_C@_0BC@FKHIFGIM@?$DM?$CFIDS_Monitor_8?$CF?$DO?$AA@ 10065074     monitor.obj
 0002:00006088       ??_C@_0BC@CBLEGNK@?$DM?$CFIDS_Monitor_7?$CF?$DO?$AA@ 10065088     monitor.obj
 0002:0000609c       ??_C@_0BC@LKKHCBLP@?$DM?$CFIDS_Monitor_6?$CF?$DO?$AA@ 1006509c     monitor.obj
 0002:000060b0       ??_C@_0BC@BAKOOJDE@?$DM?$CFIDS_Monitor_4?$CF?$DO?$AA@ 100650b0     monitor.obj
 0002:000060c4       ??_C@_0BC@KIBCIOFB@?$DM?$CFIDS_Monitor_5?$CF?$DO?$AA@ 100650c4     monitor.obj
 0002:000060d8       ??_C@_03OIJOKPOL@?$CD?$CD?$CD?$AA@ 100650d8     monitor.obj
 0002:000060dc       ??_C@_03DPEHBHBA@$$$?$AA@  100650dc     monitor.obj
 0002:000060e0       ??_C@_0BE@OIAEGKNK@?$DM?$CFIDS_Monitor_132?$CF?$DO?$AA@ 100650e0     monitor.obj
 0002:000060f4       ??_C@_0BE@FALIANLP@?$DM?$CFIDS_Monitor_133?$CF?$DO?$AA@ 100650f4     monitor.obj
 0002:00006108       ??_C@_0BD@BHJNMCIG@?$CFIDS_Monitor_223?$CF?$DO?$AA@ 10065108     monitor.obj
 0002:0000611c       ??_C@_0BE@PKLBMFDE@?$DM?$CFIDS_Monitor_131?$CF?$DO?$AA@ 1006511c     monitor.obj
 0002:00006130       ??_C@_0BE@ECANKCFB@?$DM?$CFIDS_Monitor_130?$CF?$DO?$AA@ 10065130     monitor.obj
 0002:00006144       ??_C@_0BE@CGFMEGL@?$DM?$CFIDS_Monitor_129?$CF?$DO?$AA@ 10065144     monitor.obj
 0002:00006158       ??_C@_0BB@DIKIPEKP@_ClusterLogPath?$DN?$AA@ 10065158     monitor.obj
 0002:0000616c       ??_C@_0L@DEOHNJBP@_PWPrompt?$DN?$AA@ 1006516c     monitor.obj
 0002:00006178       ??_C@_0O@GGIMAFE@_LoginPrompt?$DN?$AA@ 10065178     monitor.obj
 0002:00006188       ??_C@_08FAODHBOP@_Prompt?$DN?$AA@ 10065188     monitor.obj
 0002:00006194       ??_C@_08LLFCKAE@assword?3?$AA@ 10065194     monitor.obj
 0002:000061a0       ??_C@_05LNEDMIFE@ogin?3?$AA@ 100651a0     monitor.obj
 0002:000061a8       ??_C@_05FIBMGDDE@?$CD?5$?5?$DO?$AA@ 100651a8     monitor.obj
 0002:000061b0       ??_C@_0BE@NPNKJKOI@?$DM?$CFIDS_Monitor_137?$CF?$DO?$AA@ 100651b0     monitor.obj
 0002:000061c4       ??_C@_0BE@GHGGPNIN@?$DM?$CFIDS_Monitor_136?$CF?$DO?$AA@ 100651c4     monitor.obj
 0002:000061d8       ??_C@_0BE@HFNDFCGD@?$DM?$CFIDS_Monitor_135?$CF?$DO?$AA@ 100651d8     monitor.obj
 0002:000061ec       ??_C@_0P@FOPPPFHK@SV_UNIX_SERVER?$AA@ 100651ec     monitor.obj
 0002:000061fc       ??_C@_0BM@FMHLCEJP@UNIX_SERVER_IP_ADDRESS_NULL?$AA@ 100651fc     monitor.obj
 0002:00006218       ??_C@_08EOFJCFKG@SV_BASIC?$AA@ 10065218     monitor.obj
 0002:00006224       ??_C@_0BK@ELLNHNBD@BASIC_PROTOCOL_TYPE_ERROR?$AA@ 10065224     monitor.obj
 0002:00006240       ??_C@_0P@DHGKFEEB@_ProtocolType?$DN?$AA@ 10065240     monitor.obj
 0002:00006250       ??_C@_0BD@ECOCBNNE@?$DM?$CFIDS_Monitor_17?$CF?$DO?$AA@ 10065250     monitor.obj
 0002:00006264       ??_C@_0BD@PKFOHKLB@?$DM?$CFIDS_Monitor_16?$CF?$DO?$AA@ 10065264     monitor.obj
 0002:00006278       ??_C@_0BD@OIOLNFFP@?$DM?$CFIDS_Monitor_15?$CF?$DO?$AA@ 10065278     monitor.obj
 0002:0000628c       ??_C@_0BD@FAFHLCDK@?$DM?$CFIDS_Monitor_14?$CF?$DO?$AA@ 1006528c     monitor.obj
 0002:000062a0       ??_C@_0P@NPNAEAJF@_QueryTimeout?$DN?$AA@ 100652a0     monitor.obj
 0002:000062b0       ??_C@_0O@OEAHFOJE@_ConnTimeout?$DN?$AA@ 100652b0     monitor.obj
 0002:000062c0       ??_C@_0L@CCDNECLI@_FilePath?$DN?$AA@ 100652c0     monitor.obj
 0002:000062cc       ??_C@_0L@IPPCEMHD@_MatchStr?$DN?$AA@ 100652cc     monitor.obj
 0002:000062d8       ??_C@_08PMOOPDDN@_SqlStr?$DN?$AA@ 100652d8     monitor.obj
 0002:000062e4       ??_C@_09FCPKOCMG@_DsnName?$DN?$AA@ 100652e4     monitor.obj
 0002:000062f0       ??_C@_0BD@BHPHMIOK@?$DM?$CFIDS_Monitor_24?$CF?$DO?$AA@ 100652f0     monitor.obj
 0002:00006304       ??_C@_0BD@IKCAPAFD@?$DM?$CFIDS_Monitor_23?$CF?$DO?$AA@ 10065304     monitor.obj
 0002:00006318       ??_C@_0BD@DCJMJHDG@?$DM?$CFIDS_Monitor_22?$CF?$DO?$AA@ 10065318     monitor.obj
 0002:0000632c       ??_C@_09LILLMKMA@_MatchIP?$DN?$AA@ 1006532c     monitor.obj
 0002:00006338       ??_C@_09EIAGNMDP@_DomName?$DN?$AA@ 10065338     monitor.obj
 0002:00006344       ??_C@_0BD@KFPFHGAN@?$DM?$CFIDS_Monitor_30?$CF?$DO?$AA@ 10065344     monitor.obj
 0002:00006358       ??_C@_0BD@NIPNDJIH@?$DM?$CFIDS_Monitor_39?$CF?$DO?$AA@ 10065358     monitor.obj
 0002:0000636c       ??_C@_0BD@GAEBFOOC@?$DM?$CFIDS_Monitor_38?$CF?$DO?$AA@ 1006536c     monitor.obj
 0002:00006380       ??_C@_0BD@IAJOCJNB@?$DM?$CFIDS_Monitor_36?$CF?$DO?$AA@ 10065380     monitor.obj
 0002:00006394       ??_C@_0BD@DICCEOLE@?$DM?$CFIDS_Monitor_37?$CF?$DO?$AA@ 10065394     monitor.obj
 0002:000063a8       ??_C@_0BD@JCCLIGDP@?$DM?$CFIDS_Monitor_35?$CF?$DO?$AA@ 100653a8     monitor.obj
 0002:000063bc       ??_C@_0BD@CKJHOBFK@?$DM?$CFIDS_Monitor_34?$CF?$DO?$AA@ 100653bc     monitor.obj
 0002:000063d0       ??_C@_0BM@DOGIGEJH@Module?5Slot?5Number?5?$CFd?8s?5CPU?$AA@ 100653d0     monitor.obj
 0002:000063ec       ??_C@_0BD@DCLOPFMB@?$DM?$CFIDS_Monitor_46?$CF?$DO?$AA@ 100653ec     monitor.obj
 0002:00006400       ??_C@_0BD@CAALFKCP@?$DM?$CFIDS_Monitor_45?$CF?$DO?$AA@ 10065400     monitor.obj
 0002:00006414       ??_C@_0BD@JILHDNEK@?$DM?$CFIDS_Monitor_44?$CF?$DO?$AA@ 10065414     monitor.obj
 0002:00006428       ??_C@_0BD@FGAAFPD@?$DM?$CFIDS_Monitor_43?$CF?$DO?$AA@ 10065428     monitor.obj
 0002:0000643c       ??_C@_0BD@LNNMGCJG@?$DM?$CFIDS_Monitor_42?$CF?$DO?$AA@ 1006543c     monitor.obj
 0002:00006450       ??_C@_0BD@KPGJMNHI@?$DM?$CFIDS_Monitor_41?$CF?$DO?$AA@ 10065450     monitor.obj
 0002:00006464       ??_C@_0BD@BHNFKKBN@?$DM?$CFIDS_Monitor_40?$CF?$DO?$AA@ 10065464     monitor.obj
 0002:00006478       ??_C@_0O@OEHNPAIJ@_PassiveMode?$DN?$AA@ 10065478     monitor.obj
 0002:00006488       ??_C@_0M@OJEOAMHC@_ProxyType?$DN?$AA@ 10065488     monitor.obj
 0002:00006494       ??_C@_0P@KNBIONHI@_DownLoadFile?$DN?$AA@ 10065494     monitor.obj
 0002:000064a4       ??_C@_0BD@GKNNOFJH@?$DM?$CFIDS_Monitor_49?$CF?$DO?$AA@ 100654a4     monitor.obj
 0002:000064b8       ??_C@_0BD@NCGBICPC@?$DM?$CFIDS_Monitor_48?$CF?$DO?$AA@ 100654b8     monitor.obj
 0002:000064cc       ??_C@_0BD@IKACJCKE@?$DM?$CFIDS_Monitor_47?$CF?$DO?$AA@ 100654cc     monitor.obj
 0002:000064e0       ??_C@_0BD@DIAACMED@?$DM?$CFIDS_Monitor_53?$CF?$DO?$AA@ 100654e0     monitor.obj
 0002:000064f4       ??_C@_0BD@IALMELCG@?$DM?$CFIDS_Monitor_52?$CF?$DO?$AA@ 100654f4     monitor.obj
 0002:00006508       ??_C@_0BD@CKLFIDKN@?$DM?$CFIDS_Monitor_50?$CF?$DO?$AA@ 10065508     monitor.obj
 0002:0000651c       ??_C@_0BD@JCAJOEMI@?$DM?$CFIDS_Monitor_51?$CF?$DO?$AA@ 1006551c     monitor.obj
 0002:00006530       ??_C@_08HMANNDF@_Filter?$DN?$AA@ 10065530     monitor.obj
 0002:0000653c       ??_C@_07GJLKDEMG@_Query?$DN?$AA@ 1006553c     monitor.obj
 0002:00006544       ??_C@_0O@GDNGNBBE@_Credentials?$DN?$AA@ 10065544     monitor.obj
 0002:00006554       ??_C@_0M@LBKOPDKD@_Principal?$DN?$AA@ 10065554     monitor.obj
 0002:00006560       ??_C@_07OGIBOANB@ldap?3?1?1?$AA@ 10065560     monitor.obj
 0002:00006568       ??_C@_0L@OMCACBEC@_Provider?$DN?$AA@ 10065568     monitor.obj
 0002:00006574       ??_C@_0BD@MNKCOIHE@?$DM?$CFIDS_Monitor_77?$CF?$DO?$AA@ 10065574     monitor.obj
 0002:00006588       ??_C@_0BD@JFMBPICC@?$DM?$CFIDS_Monitor_78?$CF?$DO?$AA@ 10065588     monitor.obj
 0002:0000659c       ??_C@_0BE@DBDLBEMI@?$DM?$CFIDS_Monitor_214?$CF?$DO?$AA@ 1006559c     monitor.obj
 0002:000065b0       ??_C@_0BD@GHKLCAPP@?$DM?$CFIDS_Monitor_75?$CF?$DO?$AA@ 100655b0     monitor.obj
 0002:000065c4       ??_C@_0BD@NPBHEHJK@?$DM?$CFIDS_Monitor_74?$CF?$DO?$AA@ 100655c4     monitor.obj
 0002:000065d8       ??_C@_0BD@ECMAHPCD@?$DM?$CFIDS_Monitor_73?$CF?$DO?$AA@ 100655d8     monitor.obj
 0002:000065ec       ??_C@_0BD@NOBKFAEN@_monitorcondition?$DN?$AA@ 100655ec     monitor.obj
 0002:00006600       ??_C@_0P@ELIDOFGD@_AppendMethod?$DN?$AA@ 10065600     monitor.obj
 0002:00006610       ??_C@_0L@DOAGJECL@_RuleFile?$DN?$AA@ 10065610     monitor.obj
 0002:0000661c       ??_C@_0BC@HJOCLCHK@_LogFilePathname?$DN?$AA@ 1006561c     monitor.obj
 0002:00006630       ??_C@_0BH@KFNDBNLP@?$CFs?2MonitorManager?2temp?$AA@ 10065630     monitor.obj
 0002:00006648       ??_C@_0BD@FNEHNAEL@?$DM?$CFIDS_Monitor_84?$CF?$DO?$AA@ 10065648     monitor.obj
 0002:0000665c       ??_C@_0P@JCOMIMML@SV_UNIX_SREVER?$AA@ 1006565c     monitor.obj
 0002:0000666c       ??_C@_0BI@PIPGOFLM@UNIX_SERVER_PROMPT_NULL?$AA@ 1006566c     monitor.obj
 0002:00006684       ??_C@_0BG@NIOAJGBD@BASIC_WSA_INIT_FAILED?$AA@ 10065684     monitor.obj
 0002:0000669c       ??_C@_0BG@INLPNLHC@UNIX_SERVER_USER_NULL?$AA@ 1006569c     monitor.obj
 0002:000066b4       ??_C@_0DE@HFMMPIPB@?9?9?9?9?9?9?9?9?9?9?9telmqstatus?$CI?$CJ?5?S?C?$LL?$KH?C?$PL?N@ 100656b4     monitor.obj
 0002:000066e8       ??_C@_0BG@DEMMKMFL@UNIX_SERVER_PORT_NULL?$AA@ 100656e8     monitor.obj
 0002:00006700       ??_C@_0O@BDLCOKMJ@_ChannelName?$DN?$AA@ 10065700     monitor.obj
 0002:00006710       ??_C@_0M@DEOHNDMC@_QueueName?$DN?$AA@ 10065710     monitor.obj
 0002:0000671c       ??_C@_0O@HNIJCPLE@_ManageQueue?$DN?$AA@ 1006571c     monitor.obj
 0002:0000672c       ??_C@_0DF@OHBNLHPC@?9?9?9?9?9?9?9?9?9?9?9TELMQSTATUS?$CI?$CJ?5call?5st@ 1006572c     monitor.obj
 0002:00006764       ??_C@_0BD@HFBOIPBB@?$DM?$CFIDS_Monitor_76?$CF?$DO?$AA@ 10065764     monitor.obj
 0002:00006778       ??_C@_0CG@MGANCNKK@?9?9?9?9?9?9?9?9TELMQ?$CI?$CJ?5call?5start?9?9?9?9?9?9@ 10065778     monitor.obj
 0002:000067a0       ??_C@_0BD@KPCNAIJG@?$DM?$CFIDS_Monitor_89?$CF?$DO?$AA@ 100657a0     monitor.obj
 0002:000067b4       ??_C@_0BD@BHJBGPPD@?$DM?$CFIDS_Monitor_88?$CF?$DO?$AA@ 100657b4     monitor.obj
 0002:000067c8       ??_C@_0BD@EPPCHPKF@?$DM?$CFIDS_Monitor_87?$CF?$DO?$AA@ 100657c8     monitor.obj
 0002:000067dc       ??_C@_0BD@PHEOBIMA@?$DM?$CFIDS_Monitor_86?$CF?$DO?$AA@ 100657dc     monitor.obj
 0002:000067f0       ??_C@_0BD@OFPLLHCO@?$DM?$CFIDS_Monitor_85?$CF?$DO?$AA@ 100657f0     monitor.obj
 0002:00006804       ??_C@_0L@LGOOIMIG@_ConnAddr?$DN?$AA@ 10065804     monitor.obj
 0002:00006810       ??_C@_07KIAHLGBN@_Group?$DN?$AA@ 10065810     monitor.obj
 0002:00006818       ??_C@_0BD@NIJLJOJO@?$DM?$CFIDS_Monitor_95?$CF?$DO?$AA@ 10065818     monitor.obj
 0002:0000682c       ??_C@_0BD@MKCODBHA@?$DM?$CFIDS_Monitor_96?$CF?$DO?$AA@ 1006582c     monitor.obj
 0002:00006840       ??_C@_0BD@GACHPJPL@?$DM?$CFIDS_Monitor_94?$CF?$DO?$AA@ 10065840     monitor.obj
 0002:00006854       ??_C@_0BD@PNPAMBEC@?$DM?$CFIDS_Monitor_93?$CF?$DO?$AA@ 10065854     monitor.obj
 0002:00006868       ??_C@_0M@BPBLJLFL@_SendBytes?$DN?$AA@ 10065868     monitor.obj
 0002:00006874       ??_C@_0BD@JCENCBCG@?$DM?$CFIDS_Monitor_99?$CF?$DO?$AA@ 10065874     monitor.obj
 0002:00006888       ??_C@_0BE@FKNNIIB@?$DM?$CFIDS_Monitor_100?$CF?$DO?$AA@ 10065888     monitor.obj
 0002:0000689c       ??_C@_0BD@CKPBEGED@?$DM?$CFIDS_Monitor_98?$CF?$DO?$AA@ 1006589c     monitor.obj
 0002:000068b0       ??_C@_0BD@HCJCFGBF@?$DM?$CFIDS_Monitor_97?$CF?$DO?$AA@ 100658b0     monitor.obj
 0002:000068c4       ??_C@_0BE@IKMPEPNG@?$DM?$CFIDS_Monitor_104?$CF?$DO?$AA@ 100658c4     monitor.obj
 0002:000068d8       ??_C@_0BE@BHBIHHGP@?$DM?$CFIDS_Monitor_103?$CF?$DO?$AA@ 100658d8     monitor.obj
 0002:000068ec       ??_C@_0BE@KPKEBAAK@?$DM?$CFIDS_Monitor_102?$CF?$DO?$AA@ 100658ec     monitor.obj
 0002:00006900       ??_C@_0BE@LNBBLPOE@?$DM?$CFIDS_Monitor_101?$CF?$DO?$AA@ 10065900     monitor.obj
 0002:00006914       ??_C@_09GJCBJFIE@_SendStr?$DN?$AA@ 10065914     monitor.obj
 0002:00006920       ??_C@_0L@DHBGBLII@_connPort?$DN?$AA@ 10065920     monitor.obj
 0002:0000692c       ??_C@_0BE@IAHBJGFE@?$DM?$CFIDS_Monitor_111?$CF?$DO?$AA@ 1006592c     monitor.obj
 0002:00006940       ??_C@_0BE@DIMNPBDB@?$DM?$CFIDS_Monitor_110?$CF?$DO?$AA@ 10065940     monitor.obj
 0002:00006954       ??_C@_0BE@HIKFJHAL@?$DM?$CFIDS_Monitor_109?$CF?$DO?$AA@ 10065954     monitor.obj
 0002:00006968       ??_C@_0BE@MABJPAGO@?$DM?$CFIDS_Monitor_108?$CF?$DO?$AA@ 10065968     monitor.obj
 0002:0000697c       ??_C@_0BE@JIHKOADI@?$DM?$CFIDS_Monitor_107?$CF?$DO?$AA@ 1006597c     monitor.obj
 0002:00006990       ??_C@_0BE@CAMGIHFN@?$DM?$CFIDS_Monitor_106?$CF?$DO?$AA@ 10065990     monitor.obj
 0002:000069a4       ??_C@_0BE@DCHDCILD@?$DM?$CFIDS_Monitor_105?$CF?$DO?$AA@ 100659a4     monitor.obj
 0002:000069b8       ??_C@_08IOKALDMJ@_Secret?$DN?$AA@ 100659b8     monitor.obj
 0002:000069c4       ??_C@_0BE@KFBKMJII@?$DM?$CFIDS_Monitor_117?$CF?$DO?$AA@ 100659c4     monitor.obj
 0002:000069d8       ??_C@_0BE@BNKGKOON@?$DM?$CFIDS_Monitor_116?$CF?$DO?$AA@ 100659d8     monitor.obj
 0002:000069ec       ??_C@_0BE@PBDABAD@?$DM?$CFIDS_Monitor_115?$CF?$DO?$AA@ 100659ec     monitor.obj
 0002:00006a00       ??_C@_05NHMCFCMP@_DSN?$DN?$AA@ 10065a00     monitor.obj
 0002:00006a08       ??_C@_0L@OGDGPNPN@NetTRAFFIC?$AA@ 10065a08     monitor.obj
 0002:00006a14       ??_C@_0BE@BEFAELBE@?$DM?$CFIDS_Monitor_212?$CF?$DO?$AA@ 10065a14     monitor.obj
 0002:00006a28       ??_C@_0P@DBACEPEH@NetTraffic?4dll?$AA@ 10065a28     monitor.obj
 0002:00006a38       ??_C@_0BE@LKNJKDAO@?$DM?$CFIDS_Monitor_128?$CF?$DO?$AA@ 10065a38     monitor.obj
 0002:00006a4c       ??_C@_0BE@OCLKLDFI@?$DM?$CFIDS_Monitor_127?$CF?$DO?$AA@ 10065a4c     monitor.obj
 0002:00006a60       ??_C@_0BE@FKAGNEDN@?$DM?$CFIDS_Monitor_126?$CF?$DO?$AA@ 10065a60     monitor.obj
 0002:00006a74       ??_C@_0BE@EILDHLND@?$DM?$CFIDS_Monitor_125?$CF?$DO?$AA@ 10065a74     monitor.obj
 0002:00006a88       ??_C@_0BE@PAAPBMLG@?$DM?$CFIDS_Monitor_124?$CF?$DO?$AA@ 10065a88     monitor.obj
 0002:00006a9c       ??_C@_0BB@GCPPHDF@_InterfaceIndex?$DN?$AA@ 10065a9c     monitor.obj
 0002:00006ab0       ??_C@_0BE@HFLFPFHK@?$DM?$CFIDS_Monitor_199?$CF?$DO?$AA@ 10065ab0     monitor.obj
 0002:00006ac4       ??_C@_0BE@MNAJJCBP@?$DM?$CFIDS_Monitor_198?$CF?$DO?$AA@ 10065ac4     monitor.obj
 0002:00006ad8       ??_C@_0BE@JFGKICEJ@?$DM?$CFIDS_Monitor_197?$CF?$DO?$AA@ 10065ad8     monitor.obj
 0002:00006aec       ??_C@_06JMLEJFFP@_type?$DN?$AA@ 10065aec     monitor.obj
 0002:00006af4       ??_C@_0M@NKGIFBLE@_AlertType?$DN?$AA@ 10065af4     monitor.obj
 0002:00006b00       ??_C@_0M@HEAGNMON@_PriKeyPath?$AA@ 10065b00     monitor.obj
 0002:00006b0c       ??_C@_0M@ODKPIICO@_total_mem?$DN?$AA@ 10065b0c     monitor.obj
 0002:00006b18       ??_C@_0BE@DPAFONNL@?$DM?$CFIDS_Monitor_139?$CF?$DO?$AA@ 10065b18     monitor.obj
 0002:00006b2c       ??_C@_0BE@FKCELGMK@?$DM?$CFIDS_Monitor_142?$CF?$DO?$AA@ 10065b2c     monitor.obj
 0002:00006b40       ??_C@_0BE@OCJINBKP@?$DM?$CFIDS_Monitor_143?$CF?$DO?$AA@ 10065b40     monitor.obj
 0002:00006b54       ??_C@_0BE@EIJBBJCE@?$DM?$CFIDS_Monitor_141?$CF?$DO?$AA@ 10065b54     monitor.obj
 0002:00006b68       ??_C@_0BE@PACNHOEB@?$DM?$CFIDS_Monitor_140?$CF?$DO?$AA@ 10065b68     monitor.obj
 0002:00006b7c       ??_C@_06OAAFIHJE@_Disk?$DN?$AA@ 10065b7c     monitor.obj
 0002:00006b84       ??_C@_0BE@GHEEJPHK@?$DM?$CFIDS_Monitor_152?$CF?$DO?$AA@ 10065b84     monitor.obj
 0002:00006b98       ??_C@_0BE@INCFDBML@?$DM?$CFIDS_Monitor_149?$CF?$DO?$AA@ 10065b98     monitor.obj
 0002:00006bac       ??_C@_0BE@NPPIPIBP@?$DM?$CFIDS_Monitor_153?$CF?$DO?$AA@ 10065bac     monitor.obj
 0002:00006bc0       ??_C@_0BE@ECCPMAKG@?$DM?$CFIDS_Monitor_154?$CF?$DO?$AA@ 10065bc0     monitor.obj
 0002:00006bd4       ??_C@_0BE@HFPBDAJE@?$DM?$CFIDS_Monitor_151?$CF?$DO?$AA@ 10065bd4     monitor.obj
 0002:00006be8       ??_C@_0BE@MNENFHPB@?$DM?$CFIDS_Monitor_150?$CF?$DO?$AA@ 10065be8     monitor.obj
 0002:00006bfc       ??_C@_0BA@GKLCKKGI@SV_UNIX_SERVICE?$AA@ 10065bfc     monitor.obj
 0002:00006c0c       ??_C@_0BH@LOIMMIEC@UNIX_SERVICE_NAME_NULL?$AA@ 10065c0c     monitor.obj
 0002:00006c24       ??_C@_09LIHHLKFK@_Service?$DN?$AA@ 10065c24     monitor.obj
 0002:00006c30       ??_C@_0BE@CKFKDMCI@?$DM?$CFIDS_Monitor_177?$CF?$DO?$AA@ 10065c30     monitor.obj
 0002:00006c44       ??_C@_0BE@HCDJCMHO@?$DM?$CFIDS_Monitor_178?$CF?$DO?$AA@ 10065c44     monitor.obj
 0002:00006c58       ??_C@_0BE@JCOGFLEN@?$DM?$CFIDS_Monitor_176?$CF?$DO?$AA@ 10065c58     monitor.obj
 0002:00006c6c       ??_C@_0BE@IAFDPEKD@?$DM?$CFIDS_Monitor_175?$CF?$DO?$AA@ 10065c6c     monitor.obj
 0002:00006c80       ??_C@_0BE@DIOPJDMG@?$DM?$CFIDS_Monitor_174?$CF?$DO?$AA@ 10065c80     monitor.obj
 0002:00006c94       ??_C@_0BE@KFDIKLHP@?$DM?$CFIDS_Monitor_173?$CF?$DO?$AA@ 10065c94     monitor.obj
 0002:00006ca8       ??_C@_0N@GEJMBPON@_Parameters?$DN?$AA@ 10065ca8     monitor.obj
 0002:00006cb8       ??_C@_08FFANFGPD@_Script?$DN?$AA@ 10065cb8     monitor.obj
 0002:00006cc4       ??_C@_0BE@CHGIDMKO@?$DM?$CFIDS_Monitor_183?$CF?$DO?$AA@ 10065cc4     monitor.obj
 0002:00006cd8       ??_C@_0BE@JPNEFLML@?$DM?$CFIDS_Monitor_182?$CF?$DO?$AA@ 10065cd8     monitor.obj
 0002:00006cec       ??_C@_0BE@INGBPECF@?$DM?$CFIDS_Monitor_181?$CF?$DO?$AA@ 10065cec     monitor.obj
 0002:00006d00       ??_C@_0BE@DFNNJDEA@?$DM?$CFIDS_Monitor_180?$CF?$DO?$AA@ 10065d00     monitor.obj
 0002:00006d14       ??_C@_0BE@MKIFELBL@?$DM?$CFIDS_Monitor_179?$CF?$DO?$AA@ 10065d14     monitor.obj
 0002:00006d28       ??_C@_0BE@LKLPAEBH@?$DM?$CFIDS_Monitor_184?$CF?$DO?$AA@ 10065d28     monitor.obj
 0002:00006d3c       ??_C@_0L@OMNLPFEA@FileParser?$AA@ 10065d3c     monitor.obj
 0002:00006d48       ??_C@_0BK@GNBEMGFA@?$CFs?2fcgi?9bin?2AimParser?4dll?$AA@ 10065d48     monitor.obj
 0002:00006d64       ??_C@_0O@KKCMMKPD@AimParser?4dll?$AA@ 10065d64     monitor.obj
 0002:00006d74       ??_C@_05JPPLNOIE@?$CFs?$DN?$CFs?$AA@ 10065d74     monitor.obj
 0002:00006d7c       ??_C@_06CADNEPHD@error?$DN?$AA@ 10065d7c     monitor.obj
 0002:00006d84       ??_C@_0BE@FDPADBME@?$DM?$CFIDS_Monitor_222?$CF?$DO?$AA@ 10065d84     monitor.obj
 0002:00006d98       ??_C@_0BE@EBEFJOCK@?$DM?$CFIDS_Monitor_221?$CF?$DO?$AA@ 10065d98     monitor.obj
 0002:00006dac       ??_C@_0BE@PJPJPJEP@?$DM?$CFIDS_Monitor_220?$CF?$DO?$AA@ 10065dac     monitor.obj
 0002:00006dc0       ??_C@_0BE@MDFBMMBF@?$DM?$CFIDS_Monitor_219?$CF?$DO?$AA@ 10065dc0     monitor.obj
 0002:00006dd4       ??_C@_0BE@HLONKLHA@?$DM?$CFIDS_Monitor_218?$CF?$DO?$AA@ 10065dd4     monitor.obj
 0002:00006de8       ??_C@_0BE@CDIOLLCG@?$DM?$CFIDS_Monitor_217?$CF?$DO?$AA@ 10065de8     monitor.obj
 0002:00006dfc       ??_C@_0L@IHOGDAIA@_DomNameD?$DN?$AA@ 10065dfc     monitor.obj
 0002:00006e08       ??_C@_0M@FCFCPDAL@_PassWordD?$DN?$AA@ 10065e08     monitor.obj
 0002:00006e14       ??_C@_0P@PDNDNLLL@_UserAccountD?$DN?$AA@ 10065e14     monitor.obj
 0002:00006e24       ??_C@_0L@CJAOMHJK@_DialConn?$DN?$AA@ 10065e24     monitor.obj
 0002:00006e30       ??_C@_0BA@IBJNBJHK@_DialBeforeVpn?$DN?$AA@ 10065e30     monitor.obj
 0002:00006e40       ??_C@_09EDANGCGC@_VpnConn?$DN?$AA@ 10065e40     monitor.obj
 0002:00006e4c       ??_C@_01NBENCBCI@?$CK?$AA@ 10065e4c     monitor.obj
 0002:00006e50       ??_C@_01EPMOAMKG@$?$AA@    10065e50     monitor.obj
 0002:00006e54       ??_C@_0BE@JLDCNMED@?$DM?$CFIDS_Monitor_216?$CF?$DO?$AA@ 10065e54     monitor.obj
 0002:00006e68       ??_C@_0BE@PACNPPFP@_RemoteMachineName?$DN?$AA@ 10065e68     monitor.obj
 0002:00006e7c       ??_C@_09ONBCNANN@_private?$DN?$AA@ 10065e7c     monitor.obj
 0002:00006e88       ??_C@_0BE@LAABNNJF@?$DM?$CFIDS_Monitor_191?$CF?$DO?$AA@ 10065e88     monitor.obj
 0002:00006e9c       ??_C@_0L@IIDDAFGC@_PostData?$DN?$AA@ 10065e9c     monitor.obj
 0002:00006ea8       ??_C@_05DBHKFPPG@_URL?$DN?$AA@ 10065ea8     monitor.obj
 0002:00006eb0       ??_C@_0BA@IOIEHJCO@Monitor?5config?6?$AA@ 10065eb0     monitor.obj
 0002:00006ec0       ??_C@_0BE@CNNGOFCM@?$DM?$CFIDS_Monitor_196?$CF?$DO?$AA@ 10065ec0     monitor.obj
 0002:00006ed4       ??_C@_0BE@DPGDEKMC@?$DM?$CFIDS_Monitor_195?$CF?$DO?$AA@ 10065ed4     monitor.obj
 0002:00006ee8       ??_C@_0BE@IHNPCNKH@?$DM?$CFIDS_Monitor_194?$CF?$DO?$AA@ 10065ee8     monitor.obj
 0002:00006efc       ??_C@_0BF@MKBKKKGH@Parser?5parameter?5ok?6?$AA@ 10065efc     monitor.obj
 0002:00006f14       ??_C@_08NMJJCGOO@_RunCmd?$DN?$AA@ 10065f14     monitor.obj
 0002:00006f20       ??_C@_0P@NBDLEOC@_EnalbePrompt?$DN?$AA@ 10065f20     monitor.obj
 0002:00006f30       ??_C@_0BH@MBHLDJLF@_EnablePasswordPrompt?$DN?$AA@ 10065f30     monitor.obj
 0002:00006f48       ??_C@_0BB@NGFPHMAH@_EnablePassword?$DN?$AA@ 10065f48     monitor.obj
 0002:00006f5c       ??_C@_0BE@ONGOAPPG@show?5running?9config?$AA@ 10065f5c     monitor.obj
 0002:00006f70       ??_C@_01IPJKGB@?$CD?$AA@   10065f70     monitor.obj
 0002:00006f74       ??_C@_05IFABDLPH@cisco?$AA@ 10065f74     monitor.obj
 0002:00006f7c       ??_C@_0BE@DLIFMNEK@?$DM?$CFIDS_Monitor_201?$CF?$DO?$AA@ 10065f7c     monitor.obj
 0002:00006f90       ??_C@_0BE@IDDJKKCP@?$DM?$CFIDS_Monitor_200?$CF?$DO?$AA@ 10065f90     monitor.obj
 0002:00006fa4       ??_C@_0BB@MMLBFEBM@_RequestAddress?$DN?$AA@ 10065fa4     monitor.obj
 0002:00006fb8       ??_C@_0BE@BOOOJCJG@?$DM?$CFIDS_Monitor_207?$CF?$DO?$AA@ 10065fb8     monitor.obj
 0002:00006fcc       ??_C@_0BE@KGFCPFPD@?$DM?$CFIDS_Monitor_206?$CF?$DO?$AA@ 10065fcc     monitor.obj
 0002:00006fe0       ??_C@_0BE@MFLDNHI@?$DM?$CFIDS_Monitor_204?$CF?$DO?$AA@ 10065fe0     monitor.obj
 0002:00006ff4       ??_C@_0BE@LEOHFKBN@?$DM?$CFIDS_Monitor_205?$CF?$DO?$AA@ 10065ff4     monitor.obj
 0002:00007008       ??_C@_0BE@JBIMAFMB@?$DM?$CFIDS_Monitor_203?$CF?$DO?$AA@ 10066008     monitor.obj
 0002:0000701c       ??_C@_0BH@FKFGGDGH@?$DM?$CFIDS_SingleReport_3?$CF?$DO?$AA@ 1006601c     monitor.obj
 0002:00007034       ??_C@_0BE@GOFOEPK@?$DM?$CFIDS_Monitor_211?$CF?$DO?$AA@ 10066034     monitor.obj
 0002:00007048       ??_C@_0BE@LOFJIDJP@?$DM?$CFIDS_Monitor_210?$CF?$DO?$AA@ 10066048     monitor.obj
 0002:0000705c       ??_C@_0BE@PODBOFKF@?$DM?$CFIDS_Monitor_209?$CF?$DO?$AA@ 1006605c     monitor.obj
 0002:00007070       ??_C@_0BE@EGINICMA@?$DM?$CFIDS_Monitor_208?$CF?$DO?$AA@ 10066070     monitor.obj
 0002:00007084       ??_C@_0N@FKFGDCNC@_ServerName?$DN?$AA@ 10066084     monitor.obj
 0002:00007094       ??_C@_0CA@NACNHPPH@Undefined?5RasEnumEntries?5Error?4?$AA@ 10066094     monitor.obj
 0002:000070b4       ??_C@_0CJ@LHHHAKMI@SOFTWARE?2ODBC?2ODBC?4INI?2ODBC?5Data@ 100660b4     monitor.obj
 0002:000070e0       ??_C@_0BJ@KOEOIBEN@?$CFdY?9?$CFdM?9?$CFdD?5?$CFdH?9?$CFdM?9?$CFdS?5?$AA@ 100660e0     monitor.obj
 0002:000070fc       ??_C@_01MCMALHOG@a?$AA@    100660fc     monitor.obj
 0002:00007100       ??_C@_0CB@GNHGCALK@?2Monitormanager?2Temp?2Monitor?4log@ 10066100     monitor.obj
 0002:00007124       ??_C@_0BD@PKHMBIEG@?$DM?$CFIDS_Monitor_72?$CF?$DO?$AA@ 10066124     monitor.obj
 0002:00007138       ??_C@_0BD@OIMJLHKI@?$DM?$CFIDS_Monitor_71?$CF?$DO?$AA@ 10066138     monitor.obj
 0002:0000714c       ??_C@_0BD@FAHFNAMN@?$DM?$CFIDS_Monitor_70?$CF?$DO?$AA@ 1006614c     monitor.obj
 0002:00007160       ??_C@_0BD@BABNLGPH@?$DM?$CFIDS_Monitor_69?$CF?$DO?$AA@ 10066160     monitor.obj
 0002:00007174       ??_C@_0BD@KIKBNBJC@?$DM?$CFIDS_Monitor_68?$CF?$DO?$AA@ 10066174     monitor.obj
 0002:00007188       ??_C@_0DP@DKFMGKND@DragonFlow?5MAPI?5Monitor?5test?5mes@ 10066188     monitor.obj
 0002:000071c8       ??_C@_0BD@PAMCMBME@?$DM?$CFIDS_Monitor_67?$CF?$DO?$AA@ 100661c8     monitor.obj
 0002:000071dc       ??_C@_0BD@EIHOKGKB@?$DM?$CFIDS_Monitor_66?$CF?$DO?$AA@ 100661dc     monitor.obj
 0002:000071f0       ??_C@_0BD@FKMLAJEP@?$DM?$CFIDS_Monitor_65?$CF?$DO?$AA@ 100661f0     monitor.obj
 0002:00007204       ??_C@_0BD@OCHHGOCK@?$DM?$CFIDS_Monitor_64?$CF?$DO?$AA@ 10066204     monitor.obj
 0002:00007218       ??_C@_0BD@HPKAFGJD@?$DM?$CFIDS_Monitor_63?$CF?$DO?$AA@ 10066218     monitor.obj
 0002:0000722c       ??_C@_0BD@MHBMDBPG@?$DM?$CFIDS_Monitor_62?$CF?$DO?$AA@ 1006622c     monitor.obj
 0002:00007240       ??_C@_0N@GOJKHILD@_Attachment?$DN?$AA@ 10066240     monitor.obj
 0002:00007250       ??_C@_0O@NIBNKGEB@_RcptAddress?$DN?$AA@ 10066250     monitor.obj
 0002:00007260       ??_C@_01LFCBOECM@?4?$AA@   10066260     monitor.obj
 0002:00007264       ??_C@_0BE@GNNICEAP@?$DM?$CFIDS_Monitor_123?$CF?$DO?$AA@ 10066264     monitor.obj
 0002:00007278       ??_C@_0BE@NFGEEDGK@?$DM?$CFIDS_Monitor_122?$CF?$DO?$AA@ 10066278     monitor.obj
 0002:0000728c       ??_C@_0BE@MHNBOMIE@?$DM?$CFIDS_Monitor_121?$CF?$DO?$AA@ 1006628c     monitor.obj
 0002:000072a0       ??_C@_0BE@HPGNILOB@?$DM?$CFIDS_Monitor_120?$CF?$DO?$AA@ 100662a0     monitor.obj
 0002:000072b4       ??_C@_0BE@EFMFLOLL@?$DM?$CFIDS_Monitor_119?$CF?$DO?$AA@ 100662b4     monitor.obj
 0002:000072c8       ??_C@_0BE@PNHJNJNO@?$DM?$CFIDS_Monitor_118?$CF?$DO?$AA@ 100662c8     monitor.obj
 0002:000072dc       ??_C@_0M@CMMADIIK@_RequireID?$DN?$AA@ 100662dc     monitor.obj
 0002:000072e8       ??_C@_0BN@EOCJPALA@Telnet?5Monitor?5Cpu?5Failed?3?$CFs?$AA@ 100662e8     monitor.obj
 0002:00007308       ??_C@_0BP@HPOPGJLB@Monitor?5Cpu?5faile?$CITelnet?5type?$CJ?$AA@ 10066308     monitor.obj
 0002:00007328       ??_C@_0CA@BEBEELMD@Telnet?5Monitor?5Memory?5Failed?3?$CFs?$AA@ 10066328     monitor.obj
 0002:00007348       ??_C@_0CC@OJNMGDMB@Monitor?5Memory?5faile?$CITelnet?5type@ 10066348     monitor.obj
 0002:0000736c       ??_C@_0BO@KIJIJIOD@Telnet?5monitor?5disk?5Failed?3?$CFs?$AA@ 1006636c     monitor.obj
 0002:0000738c       ??_C@_0CA@ENEDCOHL@Monitor?5Disk?5faile?$CITelnet?5type?$CJ?$AA@ 1006638c     monitor.obj
 0002:000073ac       ??_C@_0CB@NBNHDNHI@Telnet?5monitor?5process?5Failed?3?$CFs@ 100663ac     monitor.obj
 0002:000073d0       ??_C@_0CD@OICEDFOP@Monitor?5Service?5faile?$CITelnet?5typ@ 100663d0     monitor.obj
 0002:000073f4       ??_C@_07JMOJMFDG@?$CFs?5?9?$CFs?5?$AA@ 100663f4     monitor.obj
 0002:000073fc       ??_C@_0CA@KEJACOLD@Telnet?5list?5processes?5Failed?3?$CFs?$AA@ 100663fc     monitor.obj
 0002:0000741c       ??_C@_0CA@KNPOCCBN@List?5service?5faile?$CITelnet?5type?$CJ?$AA@ 1006641c     monitor.obj
 0002:0000743c       ??_C@_01IDAFKMJL@_?$AA@    1006643c     monitor.obj
 0002:00007440       ??_C@_0BE@KMOMCMHB@?$DM?$CFIDS_Monitor_213?$CF?$DO?$AA@ 10066440     monitor.obj
 0002:00007454       ??_C@_0BE@BKAIBFBO@?$DM?$CFIDS_Monitor_193?$CF?$DO?$AA@ 10066454     monitor.obj
 0002:00007468       ??_C@_07JBBKNIGO@match?$DN$?$AA@ 10066468     monitor.obj
 0002:00007470       ??_C@_0BB@KHLANLCF@downloadsize?$DN?$CFu$?$AA@ 10066470     monitor.obj
 0002:00007484       ??_C@_0O@CKJFENAK@totaltime?$DN?$CFf$?$AA@ 10066484     monitor.obj
 0002:00007494       ??_C@_0BD@FEBIGLFA@error?$DNExitCode?3?$CFd$?$AA@ 10066494     monitor.obj
 0002:000074a8       ??_C@_0BF@HPANIANI@?5?$CC?$CFs?$CC?5?$CC?$CFs?$CC?5?$CC?$CFd?$CC?5?$CC?$CFd?$CC?$AA@ 100664a8     monitor.obj
 0002:000074c0       ??_C@_0BE@DNFJAHNK@?$CFs?2cgi?9bin?2GTJA?4exe?$AA@ 100664c0     monitor.obj
 0002:000074d4       ??_C@_0BG@GNLNGBLK@?$CFs?2cgi?9bin?2?$CFd?9?$CFd?4html?$AA@ 100664d4     monitor.obj
 0002:000074ec       ??_C@_0BE@KCLEHCHL@?$DM?$CFIDS_Monitor_192?$CF?$DO?$AA@ 100664ec     monitor.obj
 0002:00007500       ??_C@_04HIPJCKON@_ID?$DN?$AA@ 10066500     monitor.obj
 0002:00007508       ??_C@_0BB@MOGOBHAF@list?$DMT?$DO?5too?5long?$AA@ 10066508     monitor.obj
 0002:0000751c       ??_C@_04CGFJFPFD@none?$AA@ 1006651c     monitor.obj
 0002:00007524       ??_C@_0BM@NFIPGKAK@Telnet?5list?5disks?5Failed?3?$CFs?$AA@ 10066524     monitor.obj
 0002:00007540       ??_C@_0BN@GHHPFACE@List?5Disk?5faile?$CITelnet?5type?$CJ?$AA@ 10066540     monitor.obj
 0002:00007560       ??_C@_0O@NLLAHGGJ@?$DM?$CFIDS_MQ_15?$CF?$DO?$AA@ 10066560     MQ.obj
 0002:00007570       ??_C@_09PGEHDEPB@CURDEPTH?$CI?$AA@ 10066570     MQ.obj
 0002:0000757c       ??_C@_0CG@IKDIOINK@DISPLAY?5QUEUE?$CI?$CFs?$CJ?5MAXDEPTH?5CURDE@ 1006657c     MQ.obj
 0002:000075a4       ??_C@_03CGPBGNDN@AMQ?$AA@  100665a4     MQ.obj
 0002:000075a8       ??_C@_0P@IKPJJHBA@?F?t?$LG?$KP?$LG?S?A?P?$LJ?$NM?$MA?m?F?w?$AA@ 100665a8     MQ.obj
 0002:000075b8       ??_C@_0CA@BAIKMECD@Starting?5MQSC?5for?5queue?5manager?$AA@ 100665b8     MQ.obj
 0002:000075d8       ??_C@_0BL@IJEIECDG@Starting?5MQSeries?5Commands?$AA@ 100665d8     MQ.obj
 0002:000075f4       ??_C@_09NOFFLMFF@runmqsc?$AN?6?$AA@ 100665f4     MQ.obj
 0002:00007600       ??_C@_0N@EKBIHCNM@runmqsc?5?$CFs?$AN?6?$AA@ 10066600     MQ.obj
 0002:00007610       ??_C@_0CJ@DBBEHDLE@?9?9?9?9?9?9?9?9?9?9?9?9MQ_GETDATA?$CI?$CJ?5call?9?9?9@ 10066610     MQ.obj
 0002:0000763c       ??_C@_0DE@MKLLIHDA@?9?9?9?9?9?9?9?9?9?9?9?9?9?9?9?9?9mq?5depth?5return@ 1006663c     MQ.obj
 0002:00007670       ??_C@_0CG@GCKMFNFP@szCurrentDepth?$DN?$CFld$szMaximumDept@ 10066670     MQ.obj
 0002:00007698       ??_C@_09IIGCALPH@MAXDEPTH?$CI?$AA@ 10066698     MQ.obj
 0002:000076a4       ??_C@_03OFAPEBGM@?$CFs?6?$AA@ 100666a4     MQ.obj
 0002:000076a8       ??_C@_0CI@CBKNMEIP@?9?9?9?9?9?9?9?9MQ_PARSE?$CI?$CJ?5call?9?9?9?9?9?9?9?9?9@ 100666a8     MQ.obj
 0002:000076d0       ??_C@_07FAANGIAG@STATUS?$CI?$AA@ 100666d0     MQ.obj
 0002:000076d8       ??_C@_0DH@GHJNPCJK@?9?9?9?9?9?9?9?9mq_status_getdata?$CI?$CJ?5seco@ 100666d8     MQ.obj
 0002:00007710       ??_C@_0DL@BDGPPPNI@?9?9?9?9?9?9?9?9?9?9mq_status_getdata?$CI?$CJ?5st@ 10066710     MQ.obj
 0002:0000774c       ??_C@_0BJ@KMFBJGME@DISPLAY?5CHSTATUS?5?$CI?$CFs?$CJ?5?$AN?6?$AA@ 1006674c     MQ.obj
 0002:00007768       ??_C@_0DJ@CKJCJPDE@?9?9?9?9?9?9?9?9MQ_STATUS_GETDATA?5receiv@ 10066768     MQ.obj
 0002:000077a4       ??_C@_0CM@JIHFCFGJ@?9?9?9?9?9?9?9?9?9?9?9Start?5Display?5CHSTATU@ 100667a4     MQ.obj
 0002:000077d0       ??_C@_0CP@FEOCBKNJ@?9?9?9?9?9?9?9?9?9mq_status_getdata?$CI?$CJ?5rec@ 100667d0     MQ.obj
 0002:00007800       ??_C@_0DC@DADFBFDH@?9?9?9?9?9?9?9mq_status_getdata?$CI?$CJ?5start@ 10066800     MQ.obj
 0002:00007834       ??_C@_0DC@DKANIFBG@?9?9?9?9?9?9?9?9?9MQ_STATUS_GETDATA?$CI?$CJ?5cal@ 10066834     MQ.obj
 0002:00007868       ??_C@_0O@GDAMBBAM@?$DM?$CFIDS_MQ_14?$CF?$DO?$AA@ 10066868     MQ.obj
 0002:00007878       ??_C@_0O@PONLCJLF@?$DM?$CFIDS_MQ_13?$CF?$DO?$AA@ 10066878     MQ.obj
 0002:00007888       ??_C@_0BF@KMDFBFJD@connect?5server?5succ?$CB?$AA@ 10066888     MQ.obj
 0002:000078a0       ??_C@_0P@IHCPCDIB@?M?$KI?$LF?$MA?W?$LE?L?$KM?N?$LE?U?R?$LF?$LN?$AA@ 100668a0     MQ.obj
 0002:000078b0       ??_C@_04MLIFMOBA@?M?$KD?V?$LJ?$AA@ 100668b0     MQ.obj
 0002:000078b8       ??_C@_07HJLKKEON@STOPPED?$AA@ 100668b8     MQ.obj
 0002:000078c0       ??_C@_04OIFFEIFD@?T?K?P?P?$AA@ 100668c0     MQ.obj
 0002:000078c8       ??_C@_07NICPBLG@RUNNING?$AA@ 100668c8     MQ.obj
 0002:000078d0       ??_C@_0M@ONDBBDED@szStatus?$DN?$CFs?$AA@ 100668d0     MQ.obj
 0002:000078dc       ??_C@_04FNNEJMGE@?$LP?$KK?J?$LM?$AA@ 100668dc     MQ.obj
 0002:000078e4       ??_C@_08MOMMLLFL@STARTING?$AA@ 100668e4     MQ.obj
 0002:000078f0       ??_C@_0EC@EJFPNBEI@?9?9?9?9?9?9?9?9?9?9start?5output?5MQ_STATUS@ 100668f0     MQ.obj
 0002:00007934       ??_C@_0DE@IMBHNEOB@?9?9?9?9?9?9?9?9?9?9MQ_STATUS_GETDATA?$CI?$CJ?5ca@ 10066934     MQ.obj
 0002:00007968       ??_C@_0CP@BJJICNGD@?9?9?9?9?9?9?9?9?9?9?9MQ_TEL_STATUS_VALUE?$CI?$CJ@ 10066968     MQ.obj
 0002:00007998       ??_C@_0BA@OIIEDBAL@nsResSessFailed?$AA@ 10066998     NetScreen.obj
 0002:000079a8       ??_C@_0BA@ENDJDDMI@nsResSessMaxium?$AA@ 100669a8     NetScreen.obj
 0002:000079b8       ??_C@_0BC@GKAOEOJI@nsResSessAllocate?$AA@ 100669b8     NetScreen.obj
 0002:000079cc       ??_C@_0BA@MIDOCBOH@nsResSessActive?$AA@ 100669cc     NetScreen.obj
 0002:000079dc       ??_C@_0N@MAPGHJLF@nsResMemLeft?$AA@ 100669dc     NetScreen.obj
 0002:000079ec       ??_C@_0BB@JNBFPKAD@nsResMemAllocate?$AA@ 100669ec     NetScreen.obj
 0002:00007a00       ??_C@_0M@LNNIGNNJ@nsResCpuAvg?$AA@ 10066a00     NetScreen.obj
 0002:00007a0c       ??_C@_0O@MJHHCOFF@nsServiceVsys?$AA@ 10066a0c     NetScreen.obj
 0002:00007a1c       ??_C@_0O@JNHGNLID@nsServiceFlag?$AA@ 10066a1c     NetScreen.obj
 0002:00007a2c       ??_C@_0BF@IOMDNCHJ@nsServiceDstPortHigh?$AA@ 10066a2c     NetScreen.obj
 0002:00007a44       ??_C@_0BE@PPHJJAED@nsServiceDstPortLow?$AA@ 10066a44     NetScreen.obj
 0002:00007a58       ??_C@_0BF@PCLPJDFL@nsServiceSrcPortHigh?$AA@ 10066a58     NetScreen.obj
 0002:00007a70       ??_C@_0BE@FPNHAFIN@nsServiceSrcPortLow?$AA@ 10066a70     NetScreen.obj
 0002:00007a84       ??_C@_0BE@INOIAKPI@nsServiceTransProto?$AA@ 10066a84     NetScreen.obj
 0002:00007a98       ??_C@_0BC@MBIIICPI@nsServiceCategory?$AA@ 10066a98     NetScreen.obj
 0002:00007aac       ??_C@_0O@GEEANDHJ@nsServiceName?$AA@ 10066aac     NetScreen.obj
 0002:00007abc       ??_C@_0P@CMAGJCFG@nsServiceIndex?$AA@ 10066abc     NetScreen.obj
 0002:00007acc       ??_C@_0BD@GHECDIFF@nsServiceGroupVsys?$AA@ 10066acc     NetScreen.obj
 0002:00007ae0       ??_C@_0BG@DDGKINAJ@nsServiceGroupComment?$AA@ 10066ae0     NetScreen.obj
 0002:00007af8       ??_C@_0BF@HBEIEMHI@nsServiceGroupMember?$AA@ 10066af8     NetScreen.obj
 0002:00007b10       ??_C@_0BD@MKHFMFHJ@nsServiceGroupName?$AA@ 10066b10     NetScreen.obj
 0002:00007b24       ??_C@_0BE@CMKIKHEA@nsServiceGroupIndex?$AA@ 10066b24     NetScreen.obj
 0002:00007b38       ??_C@_0BJ@FJECDEID@nsServiceGroupMemberVsys?$AA@ 10066b38     NetScreen.obj
 0002:00007b54       ??_C@_0BJ@PEHFMJKP@nsServiceGroupMemberName?$AA@ 10066b54     NetScreen.obj
 0002:00007b70       ??_C@_0BB@BMNGEBCI@nsServiceGrpName?$AA@ 10066b70     NetScreen.obj
 0002:00007b84       ??_C@_0BI@HHBNGHGD@nsServiceGrpMemberIndex?$AA@ 10066b84     NetScreen.obj
 0002:00007b9c       ??_C@_0O@EGMKDOIC@nsVpnMonInSpi?$AA@ 10066b9c     NetScreen.obj
 0002:00007bac       ??_C@_0P@GPJPFEIF@nsVpnMonOutSpi?$AA@ 10066bac     NetScreen.obj
 0002:00007bbc       ??_C@_0BB@JKFOGLO@nsVpnMonVsysName?$AA@ 10066bbc     NetScreen.obj
 0002:00007bd0       ??_C@_0BA@GBGKJIFG@nsVpnMonVpnName?$AA@ 10066bd0     NetScreen.obj
 0002:00007be0       ??_C@_0BB@CHLFNBCC@nsVpnMonOutPlyId?$AA@ 10066be0     NetScreen.obj
 0002:00007bf4       ??_C@_0BA@MFJDOGPG@nsVpnMonInPlyId?$AA@ 10066bf4     NetScreen.obj
 0002:00007c04       ??_C@_0BE@NFNFMMKL@nsIdsAttkMonIpSweep?$AA@ 10066c04     NetScreen.obj
 0002:00007c18       ??_C@_0BF@OGOHKFBD@nsIdsAttkMonPortScan?$AA@ 10066c18     NetScreen.obj
 0002:00007c30       ??_C@_0BE@PGIEELKO@nsIdsAttkMonWinnuke?$AA@ 10066c30     NetScreen.obj
 0002:00007c44       ??_C@_0BF@LGOBBOOK@nsIdsAttkMonUdpFlood?$AA@ 10066c44     NetScreen.obj
 0002:00007c5c       ??_C@_0BG@NJMEEPIH@nsIdsAttkMonIcmpFlood?$AA@ 10066c5c     NetScreen.obj
 0002:00007c74       ??_C@_0BB@LIMJNCJD@nsIdsAttkMonLand?$AA@ 10066c74     NetScreen.obj
 0002:00007c88       ??_C@_0BG@OCJPODJB@nsIdsAttkMonAddrSpoof?$AA@ 10066c88     NetScreen.obj
 0002:00007ca0       ??_C@_0BG@KHGGHNEM@nsIdsAttkMonPingDeath?$AA@ 10066ca0     NetScreen.obj
 0002:00007cb8       ??_C@_0BF@MADCCJOJ@nsIdsAttkMonSrcRoute?$AA@ 10066cb8     NetScreen.obj
 0002:00007cd0       ??_C@_0BF@EOBOOECE@nsIdsAttkMonTearDrop?$AA@ 10066cd0     NetScreen.obj
 0002:00007ce8       ??_C@_0BE@GHMEMPOJ@nsIdsAttkMonSynAttk?$AA@ 10066ce8     NetScreen.obj
 0002:00007cfc       ??_C@_0BE@FMIPHPBF@nsIfMonSaPolicyDeny?$AA@ 10066cfc     NetScreen.obj
 0002:00007d10       ??_C@_0BC@BFEMLNOD@nsIfMonSaInactive?$AA@ 10066d10     NetScreen.obj
 0002:00007d24       ??_C@_0P@FOBFADLG@nsIfMonNoSaPly?$AA@ 10066d24     NetScreen.obj
 0002:00007d34       ??_C@_0M@EFNCIFI@nsIfMonNoSa?$AA@ 10066d34     NetScreen.obj
 0002:00007d40       ??_C@_0P@KLHKFLNG@nsIfMonEncFail?$AA@ 10066d40     NetScreen.obj
 0002:00007d50       ??_C@_0BB@IKJHMAFM@nsIfMonTrMngDrop?$AA@ 10066d50     NetScreen.obj
 0002:00007d64       ??_C@_0BC@PCJAHIEK@nsIfMonTrMngQueue?$AA@ 10066d64     NetScreen.obj
 0002:00007d78       ??_C@_0BA@NFLIDHGM@nsIfMonUrlBlock?$AA@ 10066d78     NetScreen.obj
 0002:00007d88       ??_C@_0BA@PFCPIKHG@nsIfMonAuthFail?$AA@ 10066d88     NetScreen.obj
 0002:00007d98       ??_C@_0P@GNKLGAOL@nsIfMonPlyDeny?$AA@ 10066d98     NetScreen.obj
 0002:00007da8       ??_7CNNTPSocket@@6B@       10066da8     News.obj
 0002:00007dac       ??_C@_02GIPFHKNO@OK?$AA@   10066dac     News.obj
 0002:00007db0       ??_7CNNTPConnection@@6B@   10066db0     News.obj
 0002:00007db4       ??_C@_0BA@MPCHBNAC@?$DM?$CFIDS_News_10?$CF?$DO?$AA@ 10066db4     News.obj
 0002:00007dc4       ??_C@_0P@CKIGAEHD@?$DM?$CFIDS_News_9?$CF?$DO?$AA@ 10066dc4     News.obj
 0002:00007dd4       ??_C@_0P@JCDKGDBG@?$DM?$CFIDS_News_8?$CF?$DO?$AA@ 10066dd4     News.obj
 0002:00007de4       ??_C@_06FIMJICNC@QUIT?$AN?6?$AA@ 10066de4     News.obj
 0002:00007dec       ??_C@_0P@OPDCCMJM@?$DM?$CFIDS_News_1?$CF?$DO?$AA@ 10066dec     News.obj
 0002:00007dfc       ??_C@_0P@MNKALMJB@AUTHINFO?5USER?5?$AA@ 10066dfc     News.obj
 0002:00007e0c       ??_C@_0P@EFDLOEBH@?$DM?$CFIDS_News_3?$CF?$DO?$AA@ 10066e0c     News.obj
 0002:00007e1c       ??_C@_06HNDBPIJA@GROUP?5?$AA@ 10066e1c     News.obj
 0002:00007e24       ??_C@_0P@MKFJHDEA@?$DM?$CFIDS_News_7?$CF?$DO?$AA@ 10066e24     News.obj
 0002:00007e34       ??_C@_0P@HCOFBECF@?$DM?$CFIDS_News_6?$CF?$DO?$AA@ 10066e34     News.obj
 0002:00007e44       ??_C@_0P@GAFALLML@?$DM?$CFIDS_News_5?$CF?$DO?$AA@ 10066e44     News.obj
 0002:00007e54       ??_C@_0P@NIOMNMKO@?$DM?$CFIDS_News_4?$CF?$DO?$AA@ 10066e54     News.obj
 0002:00007e64       ??_C@_0BP@FCDPBICC@Articles?$DN?$CFd$roundTripTime?$DN?$CFld$?$AA@ 10066e64     News.obj
 0002:00007e84       ??_C@_0DG@JDLBMCEJ@status?$DN?$CFd$roundTripTime?$DN?$CF?40f$pac@ 10066e84     Ping.obj
 0002:00007ebc       __real@41c80000            10066ebc     Ping.obj
 0002:00007ec0       ??_C@_0L@CMJFHEAM@status?$DN?$CFd$?$AA@ 10066ec0     Ping.obj
 0002:00007ecc       ??_C@_0BG@LGOBHJFO@pre?9status?$DN4$error?$DN?$CFs?$AA@ 10066ecc     Ping.obj
 0002:00007ee4       ??_C@_0P@BMJHPBCL@?$DM?$CFIDS_Ping_3?$CF?$DO?$AA@ 10066ee4     Ping.obj
 0002:00007ef4       ??_C@_03MCADLMAF@off?$AA@  10066ef4     Ping.obj
 0002:00007ef8       ??_C@_06DJIHEMFI@status?$AA@ 10066ef8     Ping.obj
 0002:00007f00       ??_C@_0BC@PIPJPOGC@?$CFs?2groups?2vip?4ini?$AA@ 10066f00     Ping.obj
 0002:00007f14       ??_C@_0P@KECLJGEO@?$DM?$CFIDS_Ping_2?$CF?$DO?$AA@ 10066f14     Ping.obj
 0002:00007f24       ??_C@_0P@LGJODJKA@?$DM?$CFIDS_Ping_1?$CF?$DO?$AA@ 10066f24     Ping.obj
 0002:00007f34       ??_C@_0P@MJKIMNBP@TotalTime?$DN?$CFld$?$AA@ 10066f34     Port.obj
 0002:00007f44       ??_C@_0P@JAHJJOEH@?$DM?$CFIDS_Port_9?$CF?$DO?$AA@ 10066f44     Port.obj
 0002:00007f54       ??_C@_0P@CIMFPJCC@?$DM?$CFIDS_Port_8?$CF?$DO?$AA@ 10066f54     Port.obj
 0002:00007f64       ??_C@_0P@HAKGOJHE@?$DM?$CFIDS_Port_7?$CF?$DO?$AA@ 10066f64     Port.obj
 0002:00007f74       ??_C@_0P@MIBKIOBB@?$DM?$CFIDS_Port_6?$CF?$DO?$AA@ 10066f74     Port.obj
 0002:00007f84       ??_C@_0P@NKKPCBPP@?$DM?$CFIDS_Port_5?$CF?$DO?$AA@ 10066f84     Port.obj
 0002:00007f94       ??_C@_02JOGGLHBA@?2n?$AA@  10066f94     Port.obj
 0002:00007f98       ??_C@_02HIBBOKEN@?2r?$AA@  10066f98     Port.obj
 0002:00007f9c       ??_C@_0P@GCBDEGJK@?$DM?$CFIDS_Port_4?$CF?$DO?$AA@ 10066f9c     Port.obj
 0002:00007fac       ??_C@_0P@PPMEHOCD@?$DM?$CFIDS_Port_3?$CF?$DO?$AA@ 10066fac     Port.obj
 0002:00007fbc       ??_C@_0P@EHHIBJEG@?$DM?$CFIDS_Port_2?$CF?$DO?$AA@ 10066fbc     Port.obj
 0002:00007fcc       ??_C@_0P@FFMNLGKI@?$DM?$CFIDS_Port_1?$CF?$DO?$AA@ 10066fcc     Port.obj
 0002:00007fdc       ??_C@_0BB@ECLGHBPC@?$DM?$CFIDS_Radius_9?$CF?$DO?$AA@ 10066fdc     Radius.obj
 0002:00007ff0       ??_C@_0BB@PKAKBGJH@?$DM?$CFIDS_Radius_8?$CF?$DO?$AA@ 10066ff0     Radius.obj
 0002:00008004       ??_C@_0BB@KCGJAGMB@?$DM?$CFIDS_Radius_7?$CF?$DO?$AA@ 10067004     Radius.obj
 0002:00008018       ??_C@_0O@OCIIGEOO@error?$DN?$CFs?3?5?$CFs$?$AA@ 10067018     Radius.obj
 0002:00008028       ??_C@_0BB@BKNFGBKE@?$DM?$CFIDS_Radius_6?$CF?$DO?$AA@ 10067028     Radius.obj
 0002:0000803c       ??_C@_0BB@IGAMOEK@?$DM?$CFIDS_Radius_5?$CF?$DO?$AA@ 1006703c     Radius.obj
 0002:00008050       ??_C@_0BB@LANMKJCP@?$DM?$CFIDS_Radius_4?$CF?$DO?$AA@ 10067050     Radius.obj
 0002:00008064       ??_C@_0BB@CNALJBJG@?$DM?$CFIDS_Radius_3?$CF?$DO?$AA@ 10067064     Radius.obj
 0002:00008078       ??_C@_0BB@JFLHPGPD@?$DM?$CFIDS_Radius_2?$CF?$DO?$AA@ 10067078     Radius.obj
 0002:0000808c       ??_C@_0BB@IHACFJBN@?$DM?$CFIDS_Radius_1?$CF?$DO?$AA@ 1006708c     Radius.obj
 0002:000080a0       ??_C@_0CM@GLKDNDEM@roundTripTime?$DN?$CF?40f$packetsGoodPe@ 100670a0     RemotePing.obj
 0002:000080cc       ??_C@_0BG@IJAHHAKG@?$DM?$CFIDS_RemotePing_17?$CF?$DO?$AA@ 100670cc     RemotePing.obj
 0002:000080e4       ??_C@_09FAOEBEKE@error?$DN?$CFd$?$AA@ 100670e4     RemotePing.obj
 0002:000080f0       ??_C@_0BG@CDAOLICN@?$DM?$CFIDS_RemotePing_15?$CF?$DO?$AA@ 100670f0     RemotePing.obj
 0002:00008108       ??_C@_0BG@JLLCNPEI@?$DM?$CFIDS_RemotePing_14?$CF?$DO?$AA@ 10067108     RemotePing.obj
 0002:00008120       ??_C@_0BG@GGFOHPB@?$DM?$CFIDS_RemotePing_13?$CF?$DO?$AA@ 10067120     RemotePing.obj
 0002:00008138       ??_C@_0BG@LONJIAJE@?$DM?$CFIDS_RemotePing_12?$CF?$DO?$AA@ 10067138     RemotePing.obj
 0002:00008150       ??_C@_0BG@KMGMCPHK@?$DM?$CFIDS_RemotePing_11?$CF?$DO?$AA@ 10067150     RemotePing.obj
 0002:00008168       ??_C@_0BG@BENAEIBP@?$DM?$CFIDS_RemotePing_10?$CF?$DO?$AA@ 10067168     RemotePing.obj
 0002:00008180       ??_C@_0BG@DBLLBHMD@?$DM?$CFIDS_RemotePing_16?$CF?$DO?$AA@ 10067180     RemotePing.obj
 0002:00008198       ??_C@_0BG@FELICOCF@?$DM?$CFIDS_RemotePing_09?$CF?$DO?$AA@ 10067198     RemotePing.obj
 0002:000081b0       ??_C@_0BG@OMAEEJEA@?$DM?$CFIDS_RemotePing_08?$CF?$DO?$AA@ 100671b0     RemotePing.obj
 0002:000081c8       ??_C@_0BG@LEGHFJBG@?$DM?$CFIDS_RemotePing_07?$CF?$DO?$AA@ 100671c8     RemotePing.obj
 0002:000081e0       ??_C@_0BG@MNLDOHD@?$DM?$CFIDS_RemotePing_06?$CF?$DO?$AA@ 100671e0     RemotePing.obj
 0002:000081f8       ??_C@_0CF@PLAKPIKB@DragonFlow?4Net?5Proxy?5Ping?5On?5?$CFs?5@ 100671f8     RemotePing.obj
 0002:00008220       ??_C@_0BG@BOGOJBJN@?$DM?$CFIDS_RemotePing_05?$CF?$DO?$AA@ 10067220     RemotePing.obj
 0002:00008238       ??_C@_0BG@KGNCPGPI@?$DM?$CFIDS_RemotePing_04?$CF?$DO?$AA@ 10067238     RemotePing.obj
 0002:00008250       ??_C@_0BC@IAIHEOOH@roundTripTime?$DN?$CFd$?$AA@ 10067250     RemotePing.obj
 0002:00008264       ??_C@_0BG@PJHJPKEE@?$DM?$CFIDS_RemotePing_22?$CF?$DO?$AA@ 10067264     RemotePing.obj
 0002:0000827c       ??_C@_0BG@OLMMFFKK@?$DM?$CFIDS_RemotePing_21?$CF?$DO?$AA@ 1006727c     RemotePing.obj
 0002:00008294       ??_C@_0BG@FDHADCMP@?$DM?$CFIDS_RemotePing_20?$CF?$DO?$AA@ 10067294     RemotePing.obj
 0002:000082ac       ??_C@_0BG@GJNIAHJF@?$DM?$CFIDS_RemotePing_19?$CF?$DO?$AA@ 100672ac     RemotePing.obj
 0002:000082c4       ??_C@_0BG@NBGEGAPA@?$DM?$CFIDS_RemotePing_18?$CF?$DO?$AA@ 100672c4     RemotePing.obj
 0002:000082dc       ??_C@_0BG@DLAFMOEB@?$DM?$CFIDS_RemotePing_03?$CF?$DO?$AA@ 100672dc     RemotePing.obj
 0002:000082f4       ??_C@_0P@FMFDBLCF@error?$DN?$CFs?5?$CI?$CFd?$CJ$?$AA@ 100672f4     RemotePing.obj
 0002:00008304       ??_C@_0BG@IDLJKJCE@?$DM?$CFIDS_RemotePing_02?$CF?$DO?$AA@ 10067304     RemotePing.obj
 0002:0000831c       ??_C@_0BG@JBAMAGMK@?$DM?$CFIDS_RemotePing_01?$CF?$DO?$AA@ 1006731c     RemotePing.obj
 0002:00008334       ??_C@_0BB@KOIMNLAD@nv6saIcmpEchoReq?$AA@ 10067334     RemotePing.obj
 0002:00008348       ??_C@_0P@LDPPJJKN@enterprise?4ibm?$AA@ 10067348     RemotePing.obj
 0002:00008358       ??_C@_0BF@HGDGGLPH@ciscoPingEntryStatus?$AA@ 10067358     RemotePing.obj
 0002:00008370       ??_C@_0BE@BKFELACA@ciscoPingEntryOwner?$AA@ 10067370     RemotePing.obj
 0002:00008384       ??_C@_0BD@BPAMHOK@ciscoPingCompleted?$AA@ 10067384     RemotePing.obj
 0002:00008398       ??_C@_0BA@FMKNFDB@ciscoPingMaxRtt?$AA@ 10067398     RemotePing.obj
 0002:000083a8       ??_C@_0BA@DOAJINDF@ciscoPingAvgRtt?$AA@ 100673a8     RemotePing.obj
 0002:000083b8       ??_C@_0BA@GDJDFHO@ciscoPingMinRtt?$AA@ 100673b8     RemotePing.obj
 0002:000083c8       ??_C@_0BJ@EBMLAFFG@ciscoPingReceivedPackets?$AA@ 100673c8     RemotePing.obj
 0002:000083e4       ??_C@_0BF@JBGFHBEN@ciscoPingSentPackets?$AA@ 100673e4     RemotePing.obj
 0002:000083fc       ??_C@_0P@DJNIFKG@ciscoPingDelay?$AA@ 100673fc     RemotePing.obj
 0002:0000840c       ??_C@_0BH@LPMDFIBH@ciscoPingPacketTimeout?$AA@ 1006740c     RemotePing.obj
 0002:00008424       ??_C@_0BE@OKAHFGOO@ciscoPingPacketSize?$AA@ 10067424     RemotePing.obj
 0002:00008438       ??_C@_0BF@NEKLHMFH@ciscoPingPacketCount?$AA@ 10067438     RemotePing.obj
 0002:00008450       ??_C@_0BB@IGBBBKJ@ciscoPingAddress?$AA@ 10067450     RemotePing.obj
 0002:00008464       ??_C@_0BC@LMOOJCKF@ciscoPingProtocol?$AA@ 10067464     RemotePing.obj
 0002:00008478       ??_C@_0BB@FMADGKHB@enterprise?4cisco?$AA@ 10067478     RemotePing.obj
 0002:0000848c       ??_C@_0P@POKKILLJ@system?4sysName?$AA@ 1006748c     RemotePing.obj
 0002:0000849c       ??_C@_0BD@ODFFFDP@system?4sysObjectID?$AA@ 1006749c     RemotePing.obj
 0002:000084b0       ??_C@_04JEGEICAJ@?$AN?6?$CFs?$AA@ 100674b0     RloginMonitor.obj
 0002:000084b8       ??_C@_0BF@EMOBJLDH@echo?5?$CFs?$DL?$CFs?$DLecho?5?$CFs?$AN?6?$AA@ 100674b8     RloginMonitor.obj
 0002:000084d0       ??_C@_0P@ELBIIAPP@ogin?5incorrect?$AA@ 100674d0     RloginMonitor.obj
 0002:000084e0       ??_C@_05NJOGGEIN@38400?$AA@ 100674e0     RloginMonitor.obj
 0002:000084e8       ??_C@_05CMKOLKCI@vt100?$AA@ 100674e8     RloginMonitor.obj
 0002:000084f0       ??_C@_0M@HOCECMPP@?$CFsValue4?$DN0$?$AA@ 100674f0     Script.obj
 0002:000084fc       ??_C@_0N@NCKALFJP@?$CFsValue4?$DN?$CFs$?$AA@ 100674fc     Script.obj
 0002:0000850c       ??_C@_0O@CGGPFOFI@Return?5Code4?3?$AA@ 1006750c     Script.obj
 0002:0000851c       ??_C@_0M@MMAEPAOP@?$CFsValue3?$DN0$?$AA@ 1006751c     Script.obj
 0002:00008528       ??_C@_0N@MPKFIFCH@?$CFsValue3?$DN?$CFs$?$AA@ 10067528     Script.obj
 0002:00008538       ??_C@_0O@CDCAEINN@Return?5Code3?3?$AA@ 10067538     Script.obj
 0002:00008548       ??_C@_0M@PBGENJFP@?$CFsValue2?$DN0$?$AA@ 10067548     Script.obj
 0002:00008554       ??_C@_0O@IKLKDAPF@?$CFsValue2?$DN?$CFld$?$AA@ 10067554     Script.obj
 0002:00008564       ??_C@_0O@CCOCCCOK@Return?5Code2?3?$AA@ 10067564     Script.obj
 0002:00008574       ??_C@_0N@FKEKJKFG@?$CFsValue?$DN?$CFld$?$AA@ 10067574     Script.obj
 0002:00008584       ??_C@_0N@OOOBAAAM@Return?5Code?3?$AA@ 10067584     Script.obj
 0002:00008594       ??_C@_0BG@BNCCBMMG@?$DM?$CFIDS_TelMonitor_30?$CF?$DO?$AA@ 10067594     Script.obj
 0002:000085ac       ??_C@_0BF@ELKFEFKN@send?5command?5failed?4?$AA@ 100675ac     Script.obj
 0002:000085c4       ??_C@_0BA@NPCJEHK@?4?1scripts?1?$CFs?5?$CFs?$AA@ 100675c4     Script.obj
 0002:000085d4       ??_C@_0BG@FNEKHKPM@?$DM?$CFIDS_TelMonitor_29?$CF?$DO?$AA@ 100675d4     Script.obj
 0002:000085ec       ??_C@_0BG@OFPGBNJJ@?$DM?$CFIDS_TelMonitor_28?$CF?$DO?$AA@ 100675ec     Script.obj
 0002:00008604       ??_C@_0BG@LNJFANMP@?$DM?$CFIDS_TelMonitor_27?$CF?$DO?$AA@ 10067604     Script.obj
 0002:0000861c       ??_C@_0BG@FCJGKKK@?$DM?$CFIDS_TelMonitor_26?$CF?$DO?$AA@ 1006761c     Script.obj
 0002:00008634       ??_C@_0BG@BHJMMFEE@?$DM?$CFIDS_TelMonitor_25?$CF?$DO?$AA@ 10067634     Script.obj
 0002:0000864c       ??_C@_0BG@KPCAKCCB@?$DM?$CFIDS_TelMonitor_24?$CF?$DO?$AA@ 1006764c     Script.obj
 0002:00008664       ??_C@_0BG@DCPHJKJI@?$DM?$CFIDS_TelMonitor_23?$CF?$DO?$AA@ 10067664     Script.obj
 0002:0000867c       ??_C@_0BG@IKELPNPN@?$DM?$CFIDS_TelMonitor_22?$CF?$DO?$AA@ 1006767c     Script.obj
 0002:00008694       ??_C@_0BG@JIPOFCBD@?$DM?$CFIDS_TelMonitor_21?$CF?$DO?$AA@ 10067694     Script.obj
 0002:000086ac       ??_C@_0BG@CAECDFHG@?$DM?$CFIDS_TelMonitor_20?$CF?$DO?$AA@ 100676ac     Script.obj
 0002:000086c4       ??_C@_0BG@BKOKAACM@?$DM?$CFIDS_TelMonitor_19?$CF?$DO?$AA@ 100676c4     Script.obj
 0002:000086dc       ??_C@_0BG@KCFGGHEJ@?$DM?$CFIDS_TelMonitor_18?$CF?$DO?$AA@ 100676dc     Script.obj
 0002:000086f4       ??_C@_0BG@PKDFHHBP@?$DM?$CFIDS_TelMonitor_17?$CF?$DO?$AA@ 100676f4     Script.obj
 0002:0000870c       ??_C@_0BG@JINMDAOE@?$DM?$CFIDS_TelMonitor_45?$CF?$DO?$AA@ 1006770c     Script.obj
 0002:00008724       ??_C@_08ONJLFKCK@?5scripts?$AA@ 10067724     Script.obj
 0002:00008730       ??_C@_0BG@CAGAFHIB@?$DM?$CFIDS_TelMonitor_44?$CF?$DO?$AA@ 10067730     Script.obj
 0002:00008748       ??_C@_0BG@LNLHGPDI@?$DM?$CFIDS_TelMonitor_43?$CF?$DO?$AA@ 10067748     Script.obj
 0002:00008760       ??_C@_0BG@FALAIFN@?$DM?$CFIDS_TelMonitor_42?$CF?$DO?$AA@ 10067760     Script.obj
 0002:00008778       ??_C@_0BG@BHLOKHLD@?$DM?$CFIDS_TelMonitor_41?$CF?$DO?$AA@ 10067778     Script.obj
 0002:00008790       ??_C@_0BG@KPACMANG@?$DM?$CFIDS_TelMonitor_40?$CF?$DO?$AA@ 10067790     Script.obj
 0002:000087a8       ??_C@_0BG@GACKFDEM@?$DM?$CFIDS_TelMonitor_39?$CF?$DO?$AA@ 100677a8     Script.obj
 0002:000087c0       ??_C@_0BG@NIJGDECJ@?$DM?$CFIDS_TelMonitor_38?$CF?$DO?$AA@ 100677c0     Script.obj
 0002:000087d8       ??_C@_0BG@IAPFCEHP@?$DM?$CFIDS_TelMonitor_37?$CF?$DO?$AA@ 100677d8     Script.obj
 0002:000087f0       ??_C@_0BG@DIEJEDBK@?$DM?$CFIDS_TelMonitor_36?$CF?$DO?$AA@ 100677f0     Script.obj
 0002:00008808       ??_C@_0BG@CKPMOMPE@?$DM?$CFIDS_TelMonitor_35?$CF?$DO?$AA@ 10067808     Script.obj
 0002:00008820       ??_C@_0BG@JCEAILJB@?$DM?$CFIDS_TelMonitor_34?$CF?$DO?$AA@ 10067820     Script.obj
 0002:00008838       ??_C@_0BG@PJHLDCI@?$DM?$CFIDS_TelMonitor_33?$CF?$DO?$AA@ 10067838     Script.obj
 0002:00008850       ??_C@_0BG@LHCLNEEN@?$DM?$CFIDS_TelMonitor_32?$CF?$DO?$AA@ 10067850     Script.obj
 0002:00008868       ??_C@_0BG@KFJOHLKD@?$DM?$CFIDS_TelMonitor_31?$CF?$DO?$AA@ 10067868     Script.obj
 0002:00008880       ??_C@_0BG@LCDLJKNN@?$DM?$CFIDS_SSHMonitor_13?$CF?$DO?$AA@ 10067880     Script.obj
 0002:00008898       ??_C@_0BG@KIHPNLI@?$DM?$CFIDS_SSHMonitor_12?$CF?$DO?$AA@ 10067898     Script.obj
 0002:000088b0       ??_C@_0BG@BIDCFCFG@?$DM?$CFIDS_SSHMonitor_11?$CF?$DO?$AA@ 100678b0     Script.obj
 0002:000088c8       ??_C@_0BG@KAIODFDD@?$DM?$CFIDS_SSHMonitor_10?$CF?$DO?$AA@ 100678c8     Script.obj
 0002:000088e0       ??_C@_0BE@ODCBIDMH@error?$DN?$CFscontent?$DN?$CFs$?$AA@ 100678e0     Script.obj
 0002:000088f4       ??_C@_0BF@DDNJNEKF@?$DM?$CFIDS_SSHMonitor_9?$CF?$DO?$AA@ 100678f4     Script.obj
 0002:0000890c       ??_C@_0P@PABCJCDK@Return?5Code4?3?5?$AA@ 1006790c     Script.obj
 0002:0000891c       ??_C@_0P@GNMFKKID@Return?5Code3?3?5?$AA@ 1006791c     Script.obj
 0002:0000892c       ??_C@_0P@NFHJMNOG@Return?5Code2?3?5?$AA@ 1006792c     Script.obj
 0002:0000893c       ??_C@_0O@JMNMIJIJ@Return?5Code?3?5?$AA@ 1006793c     Script.obj
 0002:0000894c       ??_C@_0BF@ILGFLDMA@?$DM?$CFIDS_SSHMonitor_8?$CF?$DO?$AA@ 1006794c     Script.obj
 0002:00008964       ??_C@_0CN@HDKGAFEN@?$CFs?5?$CC?9ssh?$CC?5?5?$CC?9P?$CC?5?$CC?$CFd?$CC?5?$CC?9pw?$CC?5?$CC?$CFs?$CC?5@ 10067964     Script.obj
 0002:00008994       ??_C@_0BH@FJPIBDIK@status?$DN0$TotalCount?$DN0$?$AA@ 10067994     Script.obj
 0002:000089ac       ??_C@_0BI@GMCHJCKF@status?$DN1$TotalCount?$DN?$CFd$?$AA@ 100679ac     Script.obj
 0002:000089c4       ??_C@_0BH@JIEKBNKE@?$DM?$CFIDS_SilverStream_1?$CF?$DO?$AA@ 100679c4     SilverStream.obj
 0002:000089dc       ??_C@_0BH@IKPPLCEK@?$DM?$CFIDS_SilverStream_2?$CF?$DO?$AA@ 100679dc     SilverStream.obj
 0002:000089f4       ??_C@_0BH@DCEDNFCP@?$DM?$CFIDS_SilverStream_3?$CF?$DO?$AA@ 100679f4     SilverStream.obj
 0002:00008a0c       ??_C@_0BH@BHCIIKPD@?$DM?$CFIDS_SilverStream_5?$CF?$DO?$AA@ 10067a0c     SilverStream.obj
 0002:00008a24       ??_C@_0BA@FNNONAEF@?$DM?$CFIDS_Pop3_25?$CF?$DO?$AA@ 10067a24     SilverStream.obj
 0002:00008a34       ??_C@_0BH@FNPODFEL@?$DM?$CFIDS_SilverStream_9?$CF?$DO?$AA@ 10067a34     SilverStream.obj
 0002:00008a4c       ??_C@_0BI@OHFCNNKN@?$DM?$CFIDS_SilverStream_10?$CF?$DO?$AA@ 10067a4c     SilverStream.obj
 0002:00008a64       ??_C@_0BI@FPOOLKMI@?$DM?$CFIDS_SilverStream_11?$CF?$DO?$AA@ 10067a64     SilverStream.obj
 0002:00008a80       ??_C@_0NH@BFPBAJDI@hits?$DN?$CFld$bytes?$DN?$CFld$rpt_min?$DN?$CFld$r@ 10067a80     SilverStream.obj
 0002:00008b58       ??_C@_0BH@OFECFCCO@?$DM?$CFIDS_SilverStream_8?$CF?$DO?$AA@ 10067b58     SilverStream.obj
 0002:00008b70       ??_C@_0BI@DOGHPBEJ@Session?1License?5status?3?$AA@ 10067b70     SilverStream.obj
 0002:00008b88       ??_C@_0CC@NCAFCMNO@Current?5load?5?$CI1?$DNLIGHT?5to?54?$DNHIGH?$CJ@ 10067b88     SilverStream.obj
 0002:00008bac       ??_C@_0BH@FJNCFBN@?$DM?$CFIDS_SilverStream_6?$CF?$DO?$AA@ 10067bac     SilverStream.obj
 0002:00008bc4       ??_C@_0P@PBKADKNC@Memory?5status?3?$AA@ 10067bc4     SilverStream.obj
 0002:00008bd4       ??_C@_0BH@KPJEONJG@?$DM?$CFIDS_SilverStream_4?$CF?$DO?$AA@ 10067bd4     SilverStream.obj
 0002:00008bec       ??_C@_0P@PLIHKAGB@Thread?5counts?3?$AA@ 10067bec     SilverStream.obj
 0002:00008bfc       ??_C@_0BK@PFDFCOEL@Request?5processing?5times?3?$AA@ 10067bfc     SilverStream.obj
 0002:00008c18       ??_C@_06CBCDGIAK@bytes?3?$AA@ 10067c18     SilverStream.obj
 0002:00008c20       ??_C@_05KJPLPJOM@hits?3?$AA@ 10067c20     SilverStream.obj
 0002:00008c28       ??_C@_0BA@HIOJPAMH@?$DM?$CFIDS_SNMP_14?$CF?$DO?$AA@ 10067c28     SNMP.obj
 0002:00008c38       ??_C@_0BD@KKAIAIIP@value?$DN?$CFd?4?$CFd?4?$CFd?4?$CFd$?$AA@ 10067c38     SNMP.obj
 0002:00008c4c       ??_C@_06IDCGFCAL@?$CFs1?43?4?$AA@ 10067c4c     SNMP.obj
 0002:00008c54       ??_C@_03OOAIEIEA@?$CFs$?$AA@ 10067c54     SNMP.obj
 0002:00008c58       ??_C@_05MFEJDJP@value?$AA@ 10067c58     SNMP.obj
 0002:00008c60       ??_C@_09KEBFDHLE@value?$DN?$CFs$?$AA@ 10067c60     SNMP.obj
 0002:00008c6c       ??_C@_06KFEJCPI@value?$DN?$AA@ 10067c6c     SNMP.obj
 0002:00008c74       ??_C@_0BJ@GIPDOJCB@value?$DN?$CFx?9?$CFx?9?$CFx?9?$CFx?9?$CFx?9?$CFx$?$AA@ 10067c74     SNMP.obj
 0002:00008c90       ??_C@_09KAJIELAG@value?$DN?$CFu$?$AA@ 10067c90     SNMP.obj
 0002:00008c9c       ??_C@_0L@EFKAEJAN@value?$DN?$CFld$?$AA@ 10067c9c     SNMP.obj
 0002:00008ca8       ??_C@_0BA@OFDOMIHO@?$DM?$CFIDS_SNMP_13?$CF?$DO?$AA@ 10067ca8     SNMP.obj
 0002:00008cb8       ??_C@_0BA@FNICKPBL@?$DM?$CFIDS_SNMP_12?$CF?$DO?$AA@ 10067cb8     SNMP.obj
 0002:00008cc8       ??_C@_0BA@EPDHAAPF@?$DM?$CFIDS_SNMP_11?$CF?$DO?$AA@ 10067cc8     SNMP.obj
 0002:00008cd8       ??_C@_0BA@PHILGHJA@?$DM?$CFIDS_SNMP_10?$CF?$DO?$AA@ 10067cd8     SNMP.obj
 0002:00008ce8       ??_C@_0P@FODOFCNB@?$DM?$CFIDS_SNMP_9?$CF?$DO?$AA@ 10067ce8     SNMP.obj
 0002:00008cf8       ??_C@_0P@OGICDFLE@?$DM?$CFIDS_SNMP_8?$CF?$DO?$AA@ 10067cf8     SNMP.obj
 0002:00008d08       ??_C@_0P@LOOBCFOC@?$DM?$CFIDS_SNMP_7?$CF?$DO?$AA@ 10067d08     SNMP.obj
 0002:00008d18       ??_C@_0P@GFNECIH@?$DM?$CFIDS_SNMP_6?$CF?$DO?$AA@ 10067d18     SNMP.obj
 0002:00008d28       ??_C@_0P@BEOIONGJ@?$DM?$CFIDS_SNMP_5?$CF?$DO?$AA@ 10067d28     SNMP.obj
 0002:00008d38       ??_C@_0P@KMFEIKAM@?$DM?$CFIDS_SNMP_4?$CF?$DO?$AA@ 10067d38     SNMP.obj
 0002:00008d48       ??_C@_0P@DBIDLCLF@?$DM?$CFIDS_SNMP_3?$CF?$DO?$AA@ 10067d48     SNMP.obj
 0002:00008d58       ??_C@_0P@IJDPNFNA@?$DM?$CFIDS_SNMP_2?$CF?$DO?$AA@ 10067d58     SNMP.obj
 0002:00008d68       ??_C@_0P@JLIKHKDO@?$DM?$CFIDS_SNMP_1?$CF?$DO?$AA@ 10067d68     SNMP.obj
 0002:00008d78       ??_C@_05NINEKCGD@?$CFs?4?$CFd?$AA@ 10067d78     SnmpUtils.obj
 0002:00008d80       ??_C@_0BI@EIGDIPPL@DragonFlow?3?5Fatal?5Error?$AA@ 10067d80     SSHMonitor.obj
 0002:00008d98       ??_C@_0CH@MOILADJO@DragonFlow?3?5WinSockVersionIncomp@ 10067d98     SSHMonitor.obj
 0002:00008dc0       ??_C@_0BO@GILPHLMC@DragonFlow?3?5InitialiseWinSock?$AA@ 10067dc0     SSHMonitor.obj
 0002:00008de0       ??_C@_0BL@PIPEGGCF@DragonFlow?3?5NotEnoughSpace?$AA@ 10067de0     SSHMonitor.obj
 0002:00008dfc       ??_C@_0BM@DIAGHNJD@DragonFlow?3?5OpenCommandFile?$AA@ 10067dfc     SSHMonitor.obj
 0002:00008e18       ??_C@_0BL@LCLOPIEE@DragonFlow?3?5OpenConnection?$AA@ 10067e18     SSHMonitor.obj
 0002:00008e34       ??_C@_0CC@HIPFBFND@DragonFlow?3?5WriteToStandardOutpu@ 10067e34     SSHMonitor.obj
 0002:00008e58       ??_C@_0BO@KIAPLHJO@DragonFlow?3?5CreateInputThread?$AA@ 10067e58     SSHMonitor.obj
 0002:00008e78       ??_C@_0CE@FJLDBHHI@DragonFlow?3?5CreateErrorOutputThr@ 10067e78     SSHMonitor.obj
 0002:00008e9c       ??_C@_0BP@OFPLLHFO@DragonFlow?3?5CreateOutputThread?$AA@ 10067e9c     SSHMonitor.obj
 0002:00008ebc       ??_C@_0BE@MJFGHADD@DragonFlow?3?5Timeout?$AA@ 10067ebc     SSHMonitor.obj
 0002:00008ed0       ??_C@_0P@ICPKNIKJ@DragonFlow?3?5OK?$AA@ 10067ed0     SSHMonitor.obj
 0002:00008ee0       ??_C@_0N@KIALEEBJ@DragonFlow?3?5?$AA@ 10067ee0     SSHMonitor.obj
 0002:00008ef0       ??_C@_0BG@DLNMPIHF@UNIX_READ_DATA_FAILED?$AA@ 10067ef0     SSHMonitor.obj
 0002:00008f08       ??_C@_0BB@HEOALJKH@UNIX_BADLY_ERROR?$AA@ 10067f08     SSHMonitor.obj
 0002:00008f1c       ??_C@_0BD@BBAJALDN@UNIX_GENERAL_ERROR?$AA@ 10067f1c     SSHMonitor.obj
 0002:00008f30       ??_C@_0BE@NJNDODNB@UNIX_CONNECT_FAILED?$AA@ 10067f30     SSHMonitor.obj
 0002:00008f44       ??_C@_0BD@GKNMEKDK@UNIX_TIMEOUT_ERROR?$AA@ 10067f44     SSHMonitor.obj
 0002:00008f58       ??_C@_0BL@INDKMHOK@BASIC_PARSER_STRING_FAILED?$AA@ 10067f58     SSHMonitor.obj
 0002:00008f78       ??_C@_0EE@KMIFCMCG@?$CFs?5?$CC?$CFs?$CC?5?$CC?9ssh?$CC?5?$CC?92?$CC?5?$CC?9P?$CC?5?$CC?$CFd?$CC?5?$CC?9@ 10067f78     SSHMonitor.obj
 0002:00008fbc       ??_C@_0DH@EJAMIDAE@?$CFs?5?$CC?$CFs?$CC?5?$CC?9ssh?$CC?5?5?$CC?9P?$CC?5?$CC?$CFd?$CC?5?$CC?9pw?$CC?5@ 10067fbc     SSHMonitor.obj
 0002:00008ff4       ??_C@_07HKLILMLK@SV_UNIX?$AA@ 10067ff4     SSHMonitor.obj
 0002:00008ffc       ??_C@_0BM@ODOIBBGP@UNIX_EXECUTE_COMMAND_FAILED?$AA@ 10067ffc     SSHMonitor.obj
 0002:00009018       ??_C@_0BF@OENIFDKE@?$DM?$CFIDS_SSHMonitor_2?$CF?$DO?$AA@ 10068018     SSHMonitor.obj
 0002:00009030       ??_C@_0IJ@MOKACEE@cpu_busy?$DN?$CFs$io_busy?$DN?$CFs$packets_r@ 10068030     Sybase.obj
 0002:000090bc       ??_C@_0N@LKNLIMIK@total_errors?$AA@ 100680bc     Sybase.obj
 0002:000090cc       ??_C@_0M@BOEABEHL@total_write?$AA@ 100680cc     Sybase.obj
 0002:000090d8       ??_C@_0L@DNMBCFPK@total_read?$AA@ 100680d8     Sybase.obj
 0002:000090e4       ??_C@_0M@HFIOLNIF@pack_errors?$AA@ 100680e4     Sybase.obj
 0002:000090f0       ??_C@_0M@EAJPACGF@connections?$AA@ 100680f0     Sybase.obj
 0002:000090fc       ??_C@_09DALJEFGF@pack_sent?$AA@ 100680fc     Sybase.obj
 0002:00009108       ??_C@_0O@ECKKIEOO@pack_received?$AA@ 10068108     Sybase.obj
 0002:00009118       ??_C@_04EAPMNACM@idle?$AA@ 10068118     Sybase.obj
 0002:00009120       ??_C@_07MCAGHNBN@io_busy?$AA@ 10068120     Sybase.obj
 0002:00009128       ??_C@_08IEJJOCDL@cpu_busy?$AA@ 10068128     Sybase.obj
 0002:00009134       ??_C@_09KOLHBBPL@select?5ok?$AA@ 10068134     Sybase.obj
 0002:00009140       ??_C@_0BC@FGOAJOLH@?$DM?$CFIDS_SYBASE_01?$CF?$DO?$AA@ 10068140     Sybase.obj
 0002:00009154       ??_C@_08PAFAEDMA@?A?$KM?$LN?S?$LD?I?$LJ?$KG?$AA@ 10068154     Sybase.obj
 0002:00009160       ??_C@_0CC@GHPGHIPH@select?5?$CK?5from?5master?4?4spt_monito@ 10068160     Sybase.obj
 0002:00009184       ??_C@_04GIMEDCLA@ANSI?$AA@ 10068184     TelMonitor.obj
 0002:0000918c       ??_C@_03BDJGMFLP@NVT?$AA@  1006818c     TelMonitor.obj
 0002:00009190       ??_C@_0BF@IHCLPLPK@Command?5length?5is?3?$CFd?$AA@ 10068190     TelMonitor.obj
 0002:000091a8       ??_C@_0CA@JHKHGLGM@Read?5Data?5Failed?5from?5Server?$CI1?$CJ?$AA@ 100681a8     TelMonitor.obj
 0002:000091c8       ??_C@_0CA@JFOBNFDF@Read?5Data?5Failed?5from?5Server?$CI2?$CJ?$AA@ 100681c8     TelMonitor.obj
 0002:000091e8       ??_C@_0CH@MMFOKEFC@telnet?5connect?5failed?5?9?9error?5co@ 100681e8     TelMonitor.obj
 0002:00009210       ??_C@_0CO@PMFMLLEN@?9?9?9?9?9telnet_connect?5second?5recei@ 10068210     TelMonitor.obj
 0002:00009240       ??_C@_0O@HHLKDEGA@TERM?5?$DN?5?$CIansi?$CJ?$AA@ 10068240     TelMonitor.obj
 0002:00009250       ??_C@_0CL@IMMCAJKL@?9?9?9?9?9?9?9?9?9?9telnet?5receive?5buffer?9@ 10068250     TelMonitor.obj
 0002:00009280       ??_C@_0FC@KFPBOJBN@?$DN?$DN?$DN?$DN?$DN?$DN?$DN?$DN?$DN?$DN?$DN?$DN?$DN?$DN?$DN?$DN?$DN?$DN?$DN?$DN?$DN?$DN?$DN?$DN?$DN?$DN?$DN?$DN?$DN?$DN?$DN?$DN@ 10068280     TelMonitor.obj
 0002:000092d4       ??_C@_0CM@LKLLKCMM@?9?9?9?9?9?9telnet_connect?$CI?$CJ?5call?5star@ 100682d4     TelMonitor.obj
 0002:00009300       ??_C@_04MKNBDEPB@exit?$AA@ 10068300     TelMonitor.obj
 0002:00009308       ??_C@_0N@HPJDFJEM@parse?5error?6?$AA@ 10068308     TelMonitor.obj
 0002:00009318       ??_C@_0BH@NPCOJPFF@SOCKET_READ_DATA_ERROR?$AA@ 10068318     TelMonitor.obj
 0002:00009330       ??_C@_0BJ@LHIANHNJ@BASIC_READ_CMDFILE_FAILD?$AA@ 10068330     TelMonitor.obj
 0002:0000934c       ??_C@_0L@JOJEPMMG@inifile?$DN?$CFs?$AA@ 1006834c     TelMonitor.obj
 0002:00009358       ??_C@_07KMJBNFCM@type?$DN?$CFd?$AA@ 10068358     TelMonitor.obj
 0002:00009360       ??_C@_0BL@CPCDODFB@UNIX_SERVER_USER_PWD_ERROR?$AA@ 10068360     TelMonitor.obj
 0002:0000937c       ??_C@_0BH@CHNCLKDC@SOCKET_SEND_DATA_ERROR?$AA@ 1006837c     TelMonitor.obj
 0002:00009394       ??_C@_0CB@OOHBMFAN@UNIX_SERVER_PWD_PROMPT_NOT_FOUND@ 10068394     TelMonitor.obj
 0002:000093b8       ??_C@_0CD@FBMPDKDC@UNIX_SERVER_LOGIN_PROMPT_NOT_FOU@ 100683b8     TelMonitor.obj
 0002:000093dc       ??_C@_0CE@OMKKOOCD@UNIX_SERVER_SYSTEM_PROMPT_NOT_FO@ 100683dc     TelMonitor.obj
 0002:00009400       ??_C@_0BH@OKBLEIGJ@SOCKET_RECV_DATA_ERROR?$AA@ 10068400     TelMonitor.obj
 0002:00009418       ??_C@_0BJ@LHBDFJHA@SOCKET_RECV_DATA_TIMEOUT?$AA@ 10068418     TelMonitor.obj
 0002:00009434       ??_C@_0BK@KJPBJNBH@UNIX_SERVER_UNKNOWN_ERROR?$AA@ 10068434     TelMonitor.obj
 0002:00009450       ??_C@_0BD@BCHHDMBL@PROXY_SERVER_ERROR?$AA@ 10068450     TelMonitor.obj
 0002:00009464       ??_C@_08JAABLANP@SV_PROXY?$AA@ 10068464     TelMonitor.obj
 0002:00009470       ??_C@_0BF@FIPGOFLL@PROXY_CONNECT_FAILED?$AA@ 10068470     TelMonitor.obj
 0002:00009488       ??_C@_0BJ@HKDCHJMA@SOCKET_COMMUNICATE_ERROR?$AA@ 10068488     TelMonitor.obj
 0002:000094a4       ??_C@_0BL@MHBCHEHB@BASIC_PARSER_SERVER_FAILED?$AA@ 100684a4     TelMonitor.obj
 0002:000094c0       ??_C@_0BK@DABCPEGD@BASIC_MALLOC_MEMORY_FAILE?$AA@ 100684c0     TelMonitor.obj
 0002:000094dc       ??_C@_0BD@LLNEJJBO@SiteViewDisk_End?$AN?6?$AA@ 100684dc     TelMonitor.obj
 0002:000094f0       ??_C@_0BF@HGHABOBM@SiteViewDisk_Start?$AN?6?$AA@ 100684f0     TelMonitor.obj
 0002:00009508       ??_C@_0BF@LOACAKPC@SiteViewMemory_End?$AN?6?$AA@ 10068508     TelMonitor.obj
 0002:00009520       ??_C@_0BH@ONLNGFNE@SiteViewMemory_Start?$AN?6?$AA@ 10068520     TelMonitor.obj
 0002:00009538       ??_C@_0BC@EPNGMKCP@SiteViewCPU_End?$AN?6?$AA@ 10068538     TelMonitor.obj
 0002:0000954c       ??_C@_0BE@ECEPONOC@SiteViewCPU_Start?$AN?6?$AA@ 1006854c     TelMonitor.obj
 0002:00009560       ??_C@_0CF@OMEFECLF@?$CF02dY?9?$CF02dM?9?$CF02dD?5?$CF02dH?9?$CF02dM?9?$CF0@ 10068560     Traffic.obj
 0002:00009588       ??_C@_04FPOLKAEB@?4log?$AA@ 10068588     Traffic.obj
 0002:00009590       ??_C@_06MLJIEEEI@?2Temp?2?$AA@ 10068590     Traffic.obj
 0002:00009598       ??_C@_0P@DFGEEBOI@?$LG?A?E?d?V?C?N?D?$LM?$PO?J?$KH?$LA?$NM?$AA@ 10068598     Traffic.obj
 0002:000095a8       ??_C@_0N@BLPMAKHP@?J?$LB?$LM?d?W?$NM?C?k?J?$PN?$CFd?$AA@ 100685a8     Traffic.obj
 0002:000095b8       ??_C@_0DG@CLCKOADL@ifIndex?$DN?$CFld$ifInOctetsRate?$DN?$CF?42f$@ 100685b8     Traffic.obj
 0002:000095f0       __real@3a800000            100685f0     Traffic.obj
 0002:000095f4       ??_C@_0BI@JFKIGKBH@lines?$DN?$CFd$matchCount?$DN?$CFd$?$AA@ 100685f4     TRAP.obj
 0002:0000960c       ??_C@_0L@GDFLIAFH@?$CF?$FL?$FO$$$?$FN$$$?$AA@ 1006860c     TRAP.obj
 0002:00009618       ??_C@_0M@BLLBEKCE@?$FLMessage?$FN?3?$DN?$AA@ 10068618     TRAP.obj
 0002:00009624       ??_C@_0BD@ILAHEKEC@?$CL?$CL?$CLSNMP?9TRAP?9PDU?3?5?$AA@ 10068624     TRAP.obj
 0002:00009638       ??_C@_0P@BDFPFJOH@?$DM?$CFIDS_TRAP_1?$CF?$DO?$AA@ 10068638     TRAP.obj
 0002:00009648       ??_C@_0BC@MMCBBJHE@?$CFs?2logs?2traps?4log?$AA@ 10068648     TRAP.obj
 0002:0000965c       ??_C@_0BO@IMHGEJGB@?$CFs?2cgi?9bin?2curl_tmp_file_?$CFd?$CFd?$AA@ 1006865c     URL.obj
 0002:0000967c       ??_C@_0P@ONCODJNG@?$DM?$CFIDS_URL_53?$CF?$DO?$AA@ 1006867c     URL.obj
 0002:0000968c       ??_C@_0M@LNMMPBKP@curl?3?5?$CI52?$CJ?5?$AA@ 1006868c     URL.obj
 0002:00009698       ??_C@_0P@FFJCFOLD@?$DM?$CFIDS_URL_52?$CF?$DO?$AA@ 10068698     URL.obj
 0002:000096a8       ??_C@_0M@KPHJFOEB@curl?3?5?$CI51?$CJ?5?$AA@ 100686a8     URL.obj
 0002:000096b4       ??_C@_0P@EHCHPBFN@?$DM?$CFIDS_URL_51?$CF?$DO?$AA@ 100686b4     URL.obj
 0002:000096c4       ??_C@_0M@BHMFDJCE@curl?3?5?$CI50?$CJ?5?$AA@ 100686c4     URL.obj
 0002:000096d0       ??_C@_0P@PPJLJGDI@?$DM?$CFIDS_URL_50?$CF?$DO?$AA@ 100686d0     URL.obj
 0002:000096e0       ??_C@_0M@FHKNFPBO@curl?3?5?$CI49?$CJ?5?$AA@ 100686e0     URL.obj
 0002:000096ec       ??_C@_0P@LPPDPAAC@?$DM?$CFIDS_URL_49?$CF?$DO?$AA@ 100686ec     URL.obj
 0002:000096fc       ??_C@_0M@OPBBDIHL@curl?3?5?$CI48?$CJ?5?$AA@ 100686fc     URL.obj
 0002:00009708       ??_C@_0P@HEPJHGH@?$DM?$CFIDS_URL_48?$CF?$DO?$AA@ 10068708     URL.obj
 0002:00009718       ??_C@_0M@LHHCCICN@curl?3?5?$CI47?$CJ?5?$AA@ 10068718     URL.obj
 0002:00009724       ??_C@_0P@FPCMIHDB@?$DM?$CFIDS_URL_47?$CF?$DO?$AA@ 10068724     URL.obj
 0002:00009734       ??_C@_0M@PMOEPEI@curl?3?5?$CI46?$CJ?5?$AA@ 10068734     URL.obj
 0002:00009740       ??_C@_0P@OHJAOAFE@?$DM?$CFIDS_URL_46?$CF?$DO?$AA@ 10068740     URL.obj
 0002:00009750       ??_C@_0M@BNHLOAKG@curl?3?5?$CI45?$CJ?5?$AA@ 10068750     URL.obj
 0002:0000975c       ??_C@_0P@PFCFEPLK@?$DM?$CFIDS_URL_45?$CF?$DO?$AA@ 1006875c     URL.obj
 0002:0000976c       ??_C@_0M@KFMHIHMD@curl?3?5?$CI44?$CJ?5?$AA@ 1006876c     URL.obj
 0002:00009778       ??_C@_0P@ENJJCINP@?$DM?$CFIDS_URL_44?$CF?$DO?$AA@ 10068778     URL.obj
 0002:00009788       ??_C@_0M@DIBALPHK@curl?3?5?$CI43?$CJ?5?$AA@ 10068788     URL.obj
 0002:00009794       ??_C@_0P@NAEOBAGG@?$DM?$CFIDS_URL_43?$CF?$DO?$AA@ 10068794     URL.obj
 0002:000097a4       ??_C@_0M@IAKMNIBP@curl?3?5?$CI42?$CJ?5?$AA@ 100687a4     URL.obj
 0002:000097b0       ??_C@_0P@GIPCHHAD@?$DM?$CFIDS_URL_42?$CF?$DO?$AA@ 100687b0     URL.obj
 0002:000097c0       ??_C@_0M@JCBJHHPB@curl?3?5?$CI41?$CJ?5?$AA@ 100687c0     URL.obj
 0002:000097cc       ??_C@_0P@HKEHNION@?$DM?$CFIDS_URL_41?$CF?$DO?$AA@ 100687cc     URL.obj
 0002:000097dc       ??_C@_0M@CKKFBAJE@curl?3?5?$CI40?$CJ?5?$AA@ 100687dc     URL.obj
 0002:000097e8       ??_C@_0P@MCPLLPII@?$DM?$CFIDS_URL_40?$CF?$DO?$AA@ 100687e8     URL.obj
 0002:000097f8       ??_C@_0M@OFINIDAO@curl?3?5?$CI39?$CJ?5?$AA@ 100687f8     URL.obj
 0002:00009804       ??_C@_0P@NNDCMBC@?$DM?$CFIDS_URL_39?$CF?$DO?$AA@ 10068804     URL.obj
 0002:00009814       ??_C@_0M@FNDBOEGL@curl?3?5?$CI38?$CJ?5?$AA@ 10068814     URL.obj
 0002:00009820       ??_C@_0P@LFGPELHH@?$DM?$CFIDS_URL_38?$CF?$DO?$AA@ 10068820     URL.obj
 0002:00009830       ??_C@_0M@FFCPEDN@curl?3?5?$CI37?$CJ?5?$AA@ 10068830     URL.obj
 0002:0000983c       ??_C@_0P@ONAMFLCB@?$DM?$CFIDS_URL_37?$CF?$DO?$AA@ 1006883c     URL.obj
 0002:0000984c       ??_C@_0M@LNOOJDFI@curl?3?5?$CI36?$CJ?5?$AA@ 1006884c     URL.obj
 0002:00009858       ??_C@_0P@FFLADMEE@?$DM?$CFIDS_URL_36?$CF?$DO?$AA@ 10068858     URL.obj
 0002:00009868       ??_C@_0M@KPFLDMLG@curl?3?5?$CI35?$CJ?5?$AA@ 10068868     URL.obj
 0002:00009874       ??_C@_0P@EHAFJDKK@?$DM?$CFIDS_URL_35?$CF?$DO?$AA@ 10068874     URL.obj
 0002:00009884       ??_C@_0M@BHOHFLND@curl?3?5?$CI34?$CJ?5?$AA@ 10068884     URL.obj
 0002:00009890       ??_C@_0P@PPLJPEMP@?$DM?$CFIDS_URL_34?$CF?$DO?$AA@ 10068890     URL.obj
 0002:000098a0       ??_C@_0M@IKDAGDGK@curl?3?5?$CI33?$CJ?5?$AA@ 100688a0     URL.obj
 0002:000098ac       ??_C@_0P@GCGOMMHG@?$DM?$CFIDS_URL_33?$CF?$DO?$AA@ 100688ac     URL.obj
 0002:000098bc       ??_C@_0M@DCIMAEAP@curl?3?5?$CI32?$CJ?5?$AA@ 100688bc     URL.obj
 0002:000098c8       ??_C@_0P@NKNCKLBD@?$DM?$CFIDS_URL_32?$CF?$DO?$AA@ 100688c8     URL.obj
 0002:000098d8       ??_C@_0M@CADJKLOB@curl?3?5?$CI31?$CJ?5?$AA@ 100688d8     URL.obj
 0002:000098e4       ??_C@_0P@MIGHAEPN@?$DM?$CFIDS_URL_31?$CF?$DO?$AA@ 100688e4     URL.obj
 0002:000098f4       ??_C@_0M@JIIFMMIE@curl?3?5?$CI30?$CJ?5?$AA@ 100688f4     URL.obj
 0002:00009900       ??_C@_0P@HANLGDJI@?$DM?$CFIDS_URL_30?$CF?$DO?$AA@ 10068900     URL.obj
 0002:00009910       ??_C@_0M@NIONKKLO@curl?3?5?$CI29?$CJ?5?$AA@ 10068910     URL.obj
 0002:0000991c       ??_C@_0P@DALDAFKC@?$DM?$CFIDS_URL_29?$CF?$DO?$AA@ 1006891c     URL.obj
 0002:0000992c       ??_C@_0M@GAFBMNNL@curl?3?5?$CI28?$CJ?5?$AA@ 1006892c     URL.obj
 0002:00009938       ??_C@_0P@IIAPGCMH@?$DM?$CFIDS_URL_28?$CF?$DO?$AA@ 10068938     URL.obj
 0002:00009948       ??_C@_0M@DIDCNNIN@curl?3?5?$CI27?$CJ?5?$AA@ 10068948     URL.obj
 0002:00009954       ??_C@_0P@NAGMHCJB@?$DM?$CFIDS_URL_27?$CF?$DO?$AA@ 10068954     URL.obj
 0002:00009964       ??_C@_0M@IAIOLKOI@curl?3?5?$CI26?$CJ?5?$AA@ 10068964     URL.obj
 0002:00009970       ??_C@_0P@GINABFPE@?$DM?$CFIDS_URL_26?$CF?$DO?$AA@ 10068970     URL.obj
 0002:00009980       ??_C@_0M@JCDLBFAG@curl?3?5?$CI25?$CJ?5?$AA@ 10068980     URL.obj
 0002:0000998c       ??_C@_0P@HKGFLKBK@?$DM?$CFIDS_URL_25?$CF?$DO?$AA@ 1006898c     URL.obj
 0002:0000999c       ??_C@_0M@CKIHHCGD@curl?3?5?$CI24?$CJ?5?$AA@ 1006899c     URL.obj
 0002:000099a8       ??_C@_0P@MCNJNNHP@?$DM?$CFIDS_URL_24?$CF?$DO?$AA@ 100689a8     URL.obj
 0002:000099b8       ??_C@_0M@LHFAEKNK@curl?3?5?$CI23?$CJ?5?$AA@ 100689b8     URL.obj
 0002:000099c4       ??_C@_0P@FPAOOFMG@?$DM?$CFIDS_URL_23?$CF?$DO?$AA@ 100689c4     URL.obj
 0002:000099d4       ??_C@_0M@POMCNLP@curl?3?5?$CI22?$CJ?5?$AA@ 100689d4     URL.obj
 0002:000099e0       ??_C@_0P@OHLCICKD@?$DM?$CFIDS_URL_22?$CF?$DO?$AA@ 100689e0     URL.obj
 0002:000099f0       ??_C@_0M@BNFJICFB@curl?3?5?$CI21?$CJ?5?$AA@ 100689f0     URL.obj
 0002:000099fc       ??_C@_0P@PFAHCNEN@?$DM?$CFIDS_URL_21?$CF?$DO?$AA@ 100689fc     URL.obj
 0002:00009a0c       ??_C@_0M@KFOFOFDE@curl?3?5?$CI20?$CJ?5?$AA@ 10068a0c     URL.obj
 0002:00009a18       ??_C@_0P@ENLLEKCI@?$DM?$CFIDS_URL_20?$CF?$DO?$AA@ 10068a18     URL.obj
 0002:00009a28       ??_C@_0M@JPENNAGO@curl?3?5?$CI19?$CJ?5?$AA@ 10068a28     URL.obj
 0002:00009a34       ??_C@_0P@HHBDHPHC@?$DM?$CFIDS_URL_19?$CF?$DO?$AA@ 10068a34     URL.obj
 0002:00009a44       ??_C@_0M@CHPBLHAL@curl?3?5?$CI18?$CJ?5?$AA@ 10068a44     URL.obj
 0002:00009a50       ??_C@_0P@MPKPBIBH@?$DM?$CFIDS_URL_18?$CF?$DO?$AA@ 10068a50     URL.obj
 0002:00009a60       ??_C@_0M@HPJCKHFN@curl?3?5?$CI17?$CJ?5?$AA@ 10068a60     URL.obj
 0002:00009a6c       ??_C@_0P@JHMMAIEB@?$DM?$CFIDS_URL_17?$CF?$DO?$AA@ 10068a6c     URL.obj
 0002:00009a7c       ??_C@_0M@MHCOMADI@curl?3?5?$CI16?$CJ?5?$AA@ 10068a7c     URL.obj
 0002:00009a88       ??_C@_0P@CPHAGPCE@?$DM?$CFIDS_URL_16?$CF?$DO?$AA@ 10068a88     URL.obj
 0002:00009a98       ??_C@_0M@NFJLGPNG@curl?3?5?$CI15?$CJ?5?$AA@ 10068a98     URL.obj
 0002:00009aa4       ??_C@_0P@DNMFMAMK@?$DM?$CFIDS_URL_15?$CF?$DO?$AA@ 10068aa4     URL.obj
 0002:00009ab4       ??_C@_0M@GNCHAILD@curl?3?5?$CI14?$CJ?5?$AA@ 10068ab4     URL.obj
 0002:00009ac0       ??_C@_0P@IFHJKHKP@?$DM?$CFIDS_URL_14?$CF?$DO?$AA@ 10068ac0     URL.obj
 0002:00009ad0       ??_C@_0M@PAPADAAK@curl?3?5?$CI13?$CJ?5?$AA@ 10068ad0     URL.obj
 0002:00009adc       ??_C@_0P@BIKOJPBG@?$DM?$CFIDS_URL_13?$CF?$DO?$AA@ 10068adc     URL.obj
 0002:00009aec       ??_C@_0M@EIEMFHGP@curl?3?5?$CI12?$CJ?5?$AA@ 10068aec     URL.obj
 0002:00009af8       ??_C@_0P@KABCPIHD@?$DM?$CFIDS_URL_12?$CF?$DO?$AA@ 10068af8     URL.obj
 0002:00009b08       ??_C@_0M@FKPJPIIB@curl?3?5?$CI11?$CJ?5?$AA@ 10068b08     URL.obj
 0002:00009b14       ??_C@_0P@LCKHFHJN@?$DM?$CFIDS_URL_11?$CF?$DO?$AA@ 10068b14     URL.obj
 0002:00009b24       ??_C@_0M@OCEFJPOE@curl?3?5?$CI10?$CJ?5?$AA@ 10068b24     URL.obj
 0002:00009b30       ??_C@_0P@KBLDAPI@?$DM?$CFIDS_URL_10?$CF?$DO?$AA@ 10068b30     URL.obj
 0002:00009b40       ??_C@_0L@MBAKNLFI@curl?3?5?$CI9?$CJ?5?$AA@ 10068b40     URL.obj
 0002:00009b4c       ??_C@_0O@KMJAEAML@?$DM?$CFIDS_URL_9?$CF?$DO?$AA@ 10068b4c     URL.obj
 0002:00009b5c       ??_C@_0L@HJLGLMDN@curl?3?5?$CI8?$CJ?5?$AA@ 10068b5c     URL.obj
 0002:00009b68       ??_C@_0O@BECMCHKO@?$DM?$CFIDS_URL_8?$CF?$DO?$AA@ 10068b68     URL.obj
 0002:00009b78       ??_C@_0L@CBNFKMGL@curl?3?5?$CI7?$CJ?5?$AA@ 10068b78     URL.obj
 0002:00009b84       ??_C@_0O@EMEPDHPI@?$DM?$CFIDS_URL_7?$CF?$DO?$AA@ 10068b84     URL.obj
 0002:00009b94       ??_C@_0L@JJGJMLAO@curl?3?5?$CI6?$CJ?5?$AA@ 10068b94     URL.obj
 0002:00009ba0       ??_C@_0O@PEPDFAJN@?$DM?$CFIDS_URL_6?$CF?$DO?$AA@ 10068ba0     URL.obj
 0002:00009bb0       ??_C@_0L@ILNMGEOA@curl?3?5?$CI5?$CJ?5?$AA@ 10068bb0     URL.obj
 0002:00009bbc       ??_C@_0O@OGEGPPHD@?$DM?$CFIDS_URL_5?$CF?$DO?$AA@ 10068bbc     URL.obj
 0002:00009bcc       ??_C@_0L@DDGAADIF@curl?3?5?$CI4?$CJ?5?$AA@ 10068bcc     URL.obj
 0002:00009bd8       ??_C@_0O@FOPKJIBG@?$DM?$CFIDS_URL_4?$CF?$DO?$AA@ 10068bd8     URL.obj
 0002:00009be8       ??_C@_0L@KOLHDLDM@curl?3?5?$CI3?$CJ?5?$AA@ 10068be8     URL.obj
 0002:00009bf4       ??_C@_0O@MDCNKAKP@?$DM?$CFIDS_URL_3?$CF?$DO?$AA@ 10068bf4     URL.obj
 0002:00009c04       ??_C@_0L@BGALFMFJ@curl?3?5?$CI2?$CJ?5?$AA@ 10068c04     URL.obj
 0002:00009c10       ??_C@_0O@HLJBMHMK@?$DM?$CFIDS_URL_2?$CF?$DO?$AA@ 10068c10     URL.obj
 0002:00009c20       ??_C@_0L@ELOPDLH@curl?3?5?$CI1?$CJ?5?$AA@ 10068c20     URL.obj
 0002:00009c30       ??_C@_0MI@KNJLMODD@status?$DN?$CFld$totaltime?$DN?$CF?43f$dnstim@ 10068c30     URL.obj
 0002:00009cf8       ??_C@_0BE@JMKFBPEI@?$AN?6?$DO?$DO?$DOUpload?5Speed?3?5?$AA@ 10068cf8     URL.obj
 0002:00009d0c       ??_C@_0BG@DMFLLEMK@?$AN?6?$DO?$DO?$DODownload?5Speed?3?5?$AA@ 10068d0c     URL.obj
 0002:00009d24       ??_C@_0BE@FLOAGKDM@?$AN?6?$DO?$DO?$DORequest?5Size?3?5?$AA@ 10068d24     URL.obj
 0002:00009d38       ??_C@_0BD@JEMOCPLI@?$AN?6?$DO?$DO?$DOHeader?5Size?3?5?$AA@ 10068d38     URL.obj
 0002:00009d4c       ??_C@_0BD@IHBBGLGN@?$AN?6?$DO?$DO?$DOUpload?5Size?3?5?$AA@ 10068d4c     URL.obj
 0002:00009d60       ??_C@_0BF@HDFIJBIN@?$AN?6?$DO?$DO?$DODownload?5Size?3?5?$AA@ 10068d60     URL.obj
 0002:00009d78       ??_C@_0BL@IFMIHFDN@?$AN?6?$DO?$DO?$DOStart?5Transfer?5Time?3?5?$AA@ 10068d78     URL.obj
 0002:00009d94       ??_C@_0BI@KCINIDB@?$AN?6?$DO?$DO?$DOPretransfer?5Time?3?5?$AA@ 10068d94     URL.obj
 0002:00009dac       ??_C@_0BE@KKHKDKOJ@?$AN?6?$DO?$DO?$DOConnect?5Time?3?5?$AA@ 10068dac     URL.obj
 0002:00009dc0       ??_C@_0BA@GAMDLPNA@?$AN?6?$DO?$DO?$DODNS?5Time?3?5?$AA@ 10068dc0     URL.obj
 0002:00009dd0       ??_C@_0BC@EACJKIIA@?$AN?6?$DO?$DO?$DOTotal?5Time?3?5?$AA@ 10068dd0     URL.obj
 0002:00009de4       ??_C@_0BD@CEKBFADG@?$AN?6?$DO?$DO?$DOStatus?5Code?3?5?$AA@ 10068de4     URL.obj
 0002:00009df8       ??_C@_0O@GJCEGICE@?$DM?$CFIDS_URL_1?$CF?$DO?$AA@ 10068df8     URL.obj
 0002:00009e08       ??_C@_02JPEBCGCN@?5?$CC?$AA@ 10068e08     URL.obj
 0002:00009e0c       ??_C@_07OFIMFLFD@?5?$CC?9U?$CC?5?$CC?$AA@ 10068e0c     URL.obj
 0002:00009e14       ??_C@_07NMNNLAOG@?5?$CC?9x?$CC?5?$CC?$AA@ 10068e14     URL.obj
 0002:00009e1c       ??_C@_07CEENHEFH@?5?$CC?9u?$CC?5?$CC?$AA@ 10068e1c     URL.obj
 0002:00009e24       ??_C@_07HJMNMKGF@?5?$CC?9d?$CC?5?$CC?$AA@ 10068e24     URL.obj
 0002:00009e2c       ??_C@_01BJJEKLCA@?$CC?$AA@ 10068e2c     URL.obj
 0002:00009e30       ??_C@_0BH@NMNCAPCJ@?5?$CC?9?9connect?9timeout?$CC?5?$CC?$AA@ 10068e30     URL.obj
 0002:00009e48       ??_C@_0BB@NNGDKFNG@?$CFs?2cgi?9bin?2?$CFs?5?$CFs?$AA@ 10068e48     URL.obj
 0002:00009e5c       ??_C@_08KMAIPHLJ@curl?4exe?$AA@ 10068e5c     URL.obj
 0002:00009e68       ??_C@_0BNB@NCCBDMCL@?$CC?9w?$CC?5?$CC?2r?2n?$DO?$DO?$DOStatus?5Code?3?5?$CF?$HLhttp@ 10068e68     URL.obj
 0002:0000a03c       ??_C@_0P@POFCGGEP@URL_TYPE_ERROR?$AA@ 1006903c     Utils.obj
 0002:0000a04c       ??_C@_0BE@MAGPCLEK@UnixPerfDisksParser?$AA@ 1006904c     Utils.obj
 0002:0000a060       ??_C@_0N@CFMNCNLA@MemoryParser?$AA@ 10069060     Utils.obj
 0002:0000a070       ??_C@_0M@DELBDBBJ@DisksParser?$AA@ 10069070     Utils.obj
 0002:0000a07c       ??_C@_0L@NCEENDBD@DiskParser?$AA@ 1006907c     Utils.obj
 0002:0000a088       ??_C@_09DEBLOMCB@CpuParser?$AA@ 10069088     Utils.obj
 0002:0000a094       ??_C@_0N@OIFGPDPN@HP_CpuParser?$AA@ 10069094     Utils.obj
 0002:0000a0a4       ??_C@_0O@CBPDCBMG@ServiceParser?$AA@ 100690a4     Utils.obj
 0002:0000a0b4       ??_C@_0BB@MAEDAKBL@SiteViewDisk_End?$AA@ 100690b4     Utils.obj
 0002:0000a0c8       ??_C@_0BD@JNMEHMJM@SiteViewDisk_Start?$AA@ 100690c8     Utils.obj
 0002:0000a0dc       ??_C@_06OHKJICKC@_disk?$DN?$AA@ 100690dc     Utils.obj
 0002:0000a0e4       ??_C@_0BD@NCBPCFLL@SiteViewMemory_End?$AA@ 100690e4     Utils.obj
 0002:0000a0f8       ??_C@_0BF@JIBCOPHA@SiteViewMemory_Start?$AA@ 100690f8     Utils.obj
 0002:0000a110       ??_C@_05PEFIEAHO@_mem?$DN?$AA@ 10069110     Utils.obj
 0002:0000a118       ??_C@_03MFEMLKBL@?$EA?$EA?$EA?$AA@ 10069118     Utils.obj
 0002:0000a11c       ??_C@_0L@LPNOEAHL@?$CFserror?$DN?$CFs?$AA@ 1006911c     Utils.obj
 0002:0000a128       ??_C@_0BA@PAIAPELL@SiteViewCPU_End?$AA@ 10069128     Utils.obj
 0002:0000a138       ??_C@_0BC@GJMGCPKN@SiteViewCPU_Start?$AA@ 10069138     Utils.obj
 0002:0000a14c       ??_C@_05DOJKKLHK@_cpu?$DN?$AA@ 1006914c     Utils.obj
 0002:0000a154       ??_C@_0O@NMAJNJGI@PMemoryParser?$AA@ 10069154     Utils.obj
 0002:0000a164       ??_C@_0P@GGCKLGO@DisksActParser?$AA@ 10069164     Utils.obj
 0002:0000a174       ??_C@_0O@KKGKLJKD@DiskActParser?$AA@ 10069174     Utils.obj
 0002:0000a184       ??_C@_0BF@NBEBMGDK@IDS_TransferDllError?$AA@ 10069184     Utils.obj
 0002:0000a19c       ??_C@_0BA@KKNHAHJE@MemoryParser_zw?$AA@ 1006919c     Utils.obj
 0002:0000a1ac       ??_C@_0BH@HHMBFLAL@echo?5SiteViewDisk_End?$DL?$AA@ 100691ac     Utils.obj
 0002:0000a1c4       ??_C@_05HHMMACJM@Disks?$AA@ 100691c4     Utils.obj
 0002:0000a1cc       ??_C@_0BJ@PILIBJAM@echo?5SiteViewDisk_Start?$DL?$AA@ 100691cc     Utils.obj
 0002:0000a1e8       ??_C@_0CB@MBIBCMC@echo?5SiteViewphysicalMemory_End?$DL@ 100691e8     Utils.obj
 0002:0000a20c       ??_C@_0P@PENOAFGG@physicalMemory?$AA@ 1006920c     Utils.obj
 0002:0000a21c       ??_C@_0CD@ONIAPHOG@echo?5SiteViewphysicalMemory_Star@ 1006921c     Utils.obj
 0002:0000a240       ??_C@_0BJ@FNPNHHDO@echo?5SiteViewMemory_End?$DL?$AA@ 10069240     Utils.obj
 0002:0000a25c       ??_C@_06LEBJIAPJ@Memory?$AA@ 1006925c     Utils.obj
 0002:0000a264       ??_C@_0BL@GIFBJNGF@echo?5SiteViewMemory_Start?$DL?$AA@ 10069264     Utils.obj
 0002:0000a280       ??_C@_0BG@NHNCHLPG@echo?5SiteViewCPU_End?$DL?$AA@ 10069280     Utils.obj
 0002:0000a298       ??_C@_03PMGKFAJB@CPU?$AA@  10069298     Utils.obj
 0002:0000a29c       ??_C@_0BI@GCMEAGCH@echo?5SiteViewCPU_Start?$DL?$AA@ 1006929c     Utils.obj
 0002:0000a2b4       ??_C@_0BE@IFFJBOPB@Get?5command?5failed?$CB?$AA@ 100692b4     Utils.obj
 0002:0000a2c8       ??_C@_0L@OFDGDBHJ@?$CFs_command?$AA@ 100692c8     Utils.obj
 0002:0000a2d4       ??_C@_04DAMGJPCA@file?$AA@ 100692d4     Utils.obj
 0002:0000a2dc       ??_C@_07EFMBDOBA@service?$AA@ 100692dc     Utils.obj
 0002:0000a2e4       ??_C@_0P@DLGDDMPK@physicalmemory?$AA@ 100692e4     Utils.obj
 0002:0000a2f4       ??_C@_06HLKELJGF@memory?$AA@ 100692f4     Utils.obj
 0002:0000a2fc       ??_C@_08KOKHNCHM@diskList?$AA@ 100692fc     Utils.obj
 0002:0000a308       ??_C@_07DBFOOHDP@diskact?$AA@ 10069308     Utils.obj
 0002:0000a310       ??_C@_05HAGAAHKK@disks?$AA@ 10069310     Utils.obj
 0002:0000a318       ??_C@_04MDPPAFID@disk?$AA@ 10069318     Utils.obj
 0002:0000a320       ??_C@_06IBGLDLAA@HP_CPU?$AA@ 10069320     Utils.obj
 0002:0000a328       ??_C@_0BA@OLGGDOII@error?$DN?$CFs?5?$CI?$CFld?$CJ$?$AA@ 10069328     VPN.obj
 0002:0000a338       ??_C@_09PKHHKPHO@?$CFs?5?$CI?$CFld?$CJ?4?$AA@ 10069338     VPN.obj
 0002:0000a344       ??_C@_0P@GDPAFELM@?$DM?$CFIDS_VPN_01?$CF?$DO?$AA@ 10069344     VPN.obj
 0002:0000a354       ??_C@_0BE@EKIFBJJJ@NumEJBBeansDeployed?$AA@ 10069354     WebLogic5x.obj
 0002:0000a368       ??_C@_0BB@LMMGNANG@NumEJBDeployment?$AA@ 10069368     WebLogic5x.obj
 0002:0000a37c       ??_C@_0BA@PCIGEFOC@QueueThroughput?$AA@ 1006937c     WebLogic5x.obj
 0002:0000a38c       ??_C@_0M@BMMNJAGC@QueueLength?$AA@ 1006938c     WebLogic5x.obj
 0002:0000a398       ??_C@_0M@GDECNACG@HeapUsedPct?$AA@ 10069398     WebLogic5x.obj
 0002:0000a3a4       ??_C@_0N@DEMFMIKD@MaxHeapSpace?$AA@ 100693a4     WebLogic5x.obj
 0002:0000a3b4       ??_C@_0N@OJBFHIFD@LoginEnabled?$AA@ 100693b4     WebLogic5x.obj
 0002:0000a3c4       ??_C@_0M@DCBFPIGP@ServerState?$AA@ 100693c4     WebLogic5x.obj
 0002:0000a3d0       ??_C@_0BG@CBFEBOKH@?$DM?$CFIDS_WebLogic5x_12?$CF?$DO?$AA@ 100693d0     WebLogic5x.obj
 0002:0000a3e8       ??_C@_0BG@DDOBLBEJ@?$DM?$CFIDS_WebLogic5x_11?$CF?$DO?$AA@ 100693e8     WebLogic5x.obj
 0002:0000a400       ??_C@_0BG@ILFNNGCM@?$DM?$CFIDS_WebLogic5x_10?$CF?$DO?$AA@ 10069400     WebLogic5x.obj
 0002:0000a418       ??_C@_0BF@FEGAFJBP@?$DM?$CFIDS_WebLogic5x_9?$CF?$DO?$AA@ 10069418     WebLogic5x.obj
 0002:0000a430       ??_C@_0BF@OMNMDOHK@?$DM?$CFIDS_WebLogic5x_8?$CF?$DO?$AA@ 10069430     WebLogic5x.obj
 0002:0000a448       ??_C@_0BF@LELPCOCM@?$DM?$CFIDS_WebLogic5x_7?$CF?$DO?$AA@ 10069448     WebLogic5x.obj
 0002:0000a460       ??_C@_0BF@MADEJEJ@?$DM?$CFIDS_WebLogic5x_6?$CF?$DO?$AA@ 10069460     WebLogic5x.obj
 0002:0000a478       ??_C@_0BF@BOLGOGKH@?$DM?$CFIDS_WebLogic5x_5?$CF?$DO?$AA@ 10069478     WebLogic5x.obj
 0002:0000a490       ??_C@_0BF@KGAKIBMC@?$DM?$CFIDS_WebLogic5x_4?$CF?$DO?$AA@ 10069490     WebLogic5x.obj
 0002:0000a4a8       ??_C@_0BF@DLNNLJHL@?$DM?$CFIDS_WebLogic5x_3?$CF?$DO?$AA@ 100694a8     WebLogic5x.obj
 0002:0000a4c0       ??_C@_0BF@IDGBNOBO@?$DM?$CFIDS_WebLogic5x_2?$CF?$DO?$AA@ 100694c0     WebLogic5x.obj
 0002:0000a4d8       ??_C@_0BF@JBNEHBPA@?$DM?$CFIDS_WebLogic5x_1?$CF?$DO?$AA@ 100694d8     WebLogic5x.obj
 0002:0000a4f0       ??_C@_0BG@EMKEJPIE@?$DM?$CFIDS_WebLogic7x_01?$CF?$DO?$AA@ 100694f0     WebLogic7x.obj
 0002:0000a508       ??_C@_0BP@ELIAGEIA@jmsRuntimeJMSServersTotalCount?$AA@ 10069508     WebLogic7x.obj
 0002:0000a528       ??_C@_0BO@JHMNGNKA@jmsRuntimeJMSServersHighCount?$AA@ 10069528     WebLogic7x.obj
 0002:0000a548       ??_C@_0CB@IPMHNKGI@jmsRuntimeJMSServersCurrentCount@ 10069548     WebLogic7x.obj
 0002:0000a56c       ??_C@_0CA@HFBMMOKH@jmsRuntimeConnectionsTotalCount?$AA@ 1006956c     WebLogic7x.obj
 0002:0000a58c       ??_C@_0BP@GFBAJBEH@jmsRuntimeConnectionsHighCount?$AA@ 1006958c     WebLogic7x.obj
 0002:0000a5ac       ??_C@_0CC@GDABBMGH@jmsRuntimeConnectionsCurrentCoun@ 100695ac     WebLogic7x.obj
 0002:0000a5d4       ??_7_AFX_DLL_MODULE_STATE@@6B@ 100695d4     mfcs71:dllmodul.obj
 0002:0000a5f8       ??_C@_06JBKGCNBB@Delete?$AA@ 100695f8     mfcs71:stdafx.obj
 0002:0000a600       ??_C@_08KAAPDIAN@NoRemove?$AA@ 10069600     mfcs71:stdafx.obj
 0002:0000a60c       ??_C@_0M@DBGDLGLL@ForceRemove?$AA@ 1006960c     mfcs71:stdafx.obj
 0002:0000a618       ??_C@_03LAIAPFCB@Val?$AA@  10069618     mfcs71:stdafx.obj
 0002:0000a61c       ??_C@_01HMGJMAIH@B?$AA@    1006961c     mfcs71:stdafx.obj
 0002:0000a620       ??_C@_01CKDDGHAB@D?$AA@    10069620     mfcs71:stdafx.obj
 0002:0000a624       ??_C@_01PLPBNMEI@M?$AA@    10069624     mfcs71:stdafx.obj
 0002:0000a628       ??_C@_01CPLAODJH@S?$AA@    10069628     mfcs71:stdafx.obj
 0002:0000a650       ??_7type_info@@6B@         10069650     msvcrt:ti_inst.obj
 0002:0000a6a8       ??_7_com_error@@6B@        100696a8     comsuppw:comraise.obj
 0002:0000a6ac       _GUID_ATLVer30             100696ac     atls:atlbase.obj
 0002:0000a6bc       _GUID_ATLVer70             100696bc     atls:atlbase.obj
 0002:0000a6d0       __load_config_used         100696d0     msvcrt:loadcfg.obj
 0002:0000a718       ??_R1A@?0A@A@CNoTrackObject@@8 10069718     mfcs71:dllmodul.obj
 0002:0000a730       ??_R1A@?0A@A@AFX_MODULE_STATE@@8 10069730     mfcs71:dllmodul.obj
 0002:0000a748       ??_R1A@?0A@A@_AFX_DLL_MODULE_STATE@@8 10069748     mfcs71:dllmodul.obj
 0002:0000a760       ??_R2_AFX_DLL_MODULE_STATE@@8 10069760     mfcs71:dllmodul.obj
 0002:0000a770       ??_R3_AFX_DLL_MODULE_STATE@@8 10069770     mfcs71:dllmodul.obj
 0002:0000a780       ??_R4_AFX_DLL_MODULE_STATE@@6B@ 10069780     mfcs71:dllmodul.obj
 0002:0000a794       ??_R1A@?0A@A@type_info@@8  10069794     msvcrt:ti_inst.obj
 0002:0000a7ac       ??_R2type_info@@8          100697ac     msvcrt:ti_inst.obj
 0002:0000a7b4       ??_R3type_info@@8          100697b4     msvcrt:ti_inst.obj
 0002:0000a7c4       ??_R4type_info@@6B@        100697c4     msvcrt:ti_inst.obj
 0002:0000a7d8       ??_R1A@?0A@A@_com_error@@8 100697d8     comsuppw:comraise.obj
 0002:0000a7f0       ??_R2_com_error@@8         100697f0     comsuppw:comraise.obj
 0002:0000a7f8       ??_R3_com_error@@8         100697f8     comsuppw:comraise.obj
 0002:0000a808       ??_R4_com_error@@6B@       10069808     comsuppw:comraise.obj
 0002:0000a820       ___safe_se_handler_table   10069820     <linker-defined>
 0002:0000aa2c       ___rtc_iaa                 10069a2c     msvcrt:initsect.obj
 0002:0000aa30       ___rtc_izz                 10069a30     msvcrt:initsect.obj
 0002:0000aa34       ___rtc_taa                 10069a34     msvcrt:initsect.obj
 0002:0000aa38       ___rtc_tzz                 10069a38     msvcrt:initsect.obj
 0002:0000aa94       __CT??_R0?AVexception@@@8??0exception@@QAE@ABV0@@Z12 10069a94     AIXErrpt.obj
 0002:0000d5c4       __CT??_R0?AVlogic_error@std@@@8??0logic_error@std@@QAE@ABV01@@Z40 1006c5c4     monitor.obj
 0002:0000d5e0       __CT??_R0?AVlength_error@std@@@8??0length_error@std@@QAE@ABV01@@Z40 1006c5e0     monitor.obj
 0002:0000d5fc       __CTA3?AVlength_error@std@@ 1006c5fc     monitor.obj
 0002:0000d60c       __TI3?AVlength_error@std@@ 1006c60c     monitor.obj
 0002:0000e278       __CT??_R0?AV_com_error@@@8??0_com_error@@QAE@ABV0@@Z16 1006d278     comsuppw:comraise.obj
 0002:0000e294       __CTA1?AV_com_error@@      1006d294     comsuppw:comraise.obj
 0002:0000e29c       __TI1?AV_com_error@@       1006d29c     comsuppw:comraise.obj
 0002:0000e2ac       __IMPORT_DESCRIPTOR_svapi  1006d2ac     svapi:svapi.dll
 0002:0000e2c0       __IMPORT_DESCRIPTOR_WLDAP32 1006d2c0     Wldap32:WLDAP32.dll
 0002:0000e2d4       __IMPORT_DESCRIPTOR_RASAPI32 1006d2d4     Rasapi32:RASAPI32.dll
 0002:0000e2e8       __IMPORT_DESCRIPTOR_RegularExpressionComponentDllVc71 1006d2e8     RegularExpressionComponentDllVc71:RegularExpressionComponentDllVc71.dll
 0002:0000e2fc       __IMPORT_DESCRIPTOR_MFC71  1006d2fc     mfc71:MFC71.DLL
 0002:0000e310       __IMPORT_DESCRIPTOR_MSVCR71 1006d310     msvcrt:MSVCR71.dll
 0002:0000e324       __IMPORT_DESCRIPTOR_KERNEL32 1006d324     kernel32:KERNEL32.dll
 0002:0000e338       __IMPORT_DESCRIPTOR_USER32 1006d338     user32:USER32.dll
 0002:0000e34c       __IMPORT_DESCRIPTOR_ADVAPI32 1006d34c     advapi32:ADVAPI32.dll
 0002:0000e360       __IMPORT_DESCRIPTOR_OLEAUT32 1006d360     oleaut32:OLEAUT32.dll
 0002:0000e374       __IMPORT_DESCRIPTOR_WS2_32 1006d374     ws2_32:WS2_32.dll
 0002:0000e388       __IMPORT_DESCRIPTOR_MSVCP71 1006d388     msvcprt:MSVCP71.dll
 0002:0000e39c       __NULL_IMPORT_DESCRIPTOR   1006d39c     svapi:svapi.dll
 0003:00000000       ___xc_a                    1006f000     msvcrt:cinitexe.obj
 0003:000000d8       ___xc_z                    1006f0d8     msvcrt:cinitexe.obj
 0003:000000dc       ___xi_a                    1006f0dc     msvcrt:cinitexe.obj
 0003:000000e0       ___xi_z                    1006f0e0     msvcrt:cinitexe.obj
 0003:000000f0       ?ipAddrTable_oid@@3Uoid@@A 1006f0f0     AddrTable.obj
 0003:00000540       ?ipAdEntAddr_oid@@3Uoid@@A 1006f540     AddrTable.obj
 0003:00000990       ?ipAdEntIfIndex_oid@@3Uoid@@A 1006f990     AddrTable.obj
 0003:00000de0       ?ipAdEntNetMask_oid@@3Uoid@@A 1006fde0     AddrTable.obj
 0003:00001230       ?ipAdEntBcastAddr_oid@@3Uoid@@A 10070230     AddrTable.obj
 0003:00001680       ?ipAdEntReasmMaxSize_oid@@3Uoid@@A 10070680     AddrTable.obj
 0003:00001ad0       ?g_pfnGetThreadACP@ATL@@3P6GIXZA 10070ad0     AddrTable.obj
 0003:00001ad4       ??_R0?AV_com_error@@@8     10070ad4     ado.obj
 0003:00001af0       ??_R0?AVexception@@@8      10070af0     AIXErrpt.obj
 0003:00001b08       ?ifSpeed@@3Uoid@@A         10070b08     Bandwidth.obj
 0003:00001f58       ?ifInOctets@@3Uoid@@A      10070f58     Bandwidth.obj
 0003:000023a8       ?ifOutOctets@@3Uoid@@A     100713a8     Bandwidth.obj
 0003:000027f8       ?m_nMask@CBase64@@1PAHA    100717f8     Base64.obj
 0003:00002820       ?checkpoint_oids@@3PAUoid@@A 10071820     CheckPoint.obj
 0003:00004aa0       ?cisco_cpu_oid@@3Uoid@@A   10073aa0     CiscoCPU.obj
 0003:00004ef0       ?cisco_memory_oid@@3Uoid@@A 10073ef0     CiscoCPU.obj
 0003:00005340       ?huawei_cpu_oid@@3Uoid@@A  10074340     CiscoCPU.obj
 0003:00005790       ?huawei_memory_oid@@3Uoid@@A 10074790     CiscoCPU.obj
 0003:00005be0       ?huawei_totalmemory_oid@@3Uoid@@A 10074be0     CiscoCPU.obj
 0003:00006030       ?huawei_8016_cpu_oid@@3Uoid@@A 10075030     CiscoCPU.obj
 0003:00006480       ?huawei_8016_memory_oid@@3Uoid@@A 10075480     CiscoCPU.obj
 0003:000068d0       ?capCPUTable@@3Uoid@@A     100758d0     Ctron.obj
 0003:00006d20       ?capCPUCurrentUtilization@@3Uoid@@A 10075d20     Ctron.obj
 0003:00007170       ?etherStatsPkts64Octets@@3Uoid@@A 10076170     Ctron.obj
 0003:000075c0       ?etherStatsPkts65to127Octets@@3Uoid@@A 100765c0     Ctron.obj
 0003:00007a10       ?etherStatsTable@@3Uoid@@A 10076a10     Ctron.obj
 0003:00007e60       ?etherStatsIndex@@3Uoid@@A 10076e60     Ctron.obj
 0003:000082b0       ?etherStatsDataSource@@3Uoid@@A 100772b0     Ctron.obj
 0003:00008700       ?ifDescr@@3Uoid@@A         10077700     Ctron.obj
 0003:00008b50       ??_R0PAVCDBException@@@8   10077b50     DB.obj
 0003:00008b70       ?dynamo_oids@@3PAUoid@@A   10077b70     Dynamo.obj
 0003:00010430       ?f5_oids@@3PAUoid@@A       1007f430     F5.obj
 0003:000126b0       ?snAgGblCpuUtil1SecAvg@@3Uoid@@A 100816b0     Foundry.obj
 0003:00012b00       ?snAgGblCpuUtil5SecAvg@@3Uoid@@A 10081b00     Foundry.obj
 0003:00012f50       ?snAgGblCpuUtil1MinAvg@@3Uoid@@A 10081f50     Foundry.obj
 0003:000133a0       ?snAgentCpuUtilTable@@3Uoid@@A 100823a0     Foundry.obj
 0003:000137f0       ?snAgentCpuUtilSlotNum@@3Uoid@@A 100827f0     Foundry.obj
 0003:00013c40       ?snAgentCpuUtilCpuId@@3Uoid@@A 10082c40     Foundry.obj
 0003:00014090       ?snAgentCpuUtilInterval@@3Uoid@@A 10083090     Foundry.obj
 0003:000144e0       ?snAgentCpuUtilValue@@3Uoid@@A 100834e0     Foundry.obj
 0003:00014930       ?snAgGblDynMemUtil@@3Uoid@@A 10083930     Foundry.obj
 0003:00014d80       ?snAgGblDynMemTotal@@3Uoid@@A 10083d80     Foundry.obj
 0003:000151d0       ?snAgGblDynMemFree@@3Uoid@@A 100841d0     Foundry.obj
 0003:00015620       ?snAgTftpServerIp@@3Uoid@@A 10084620     Foundry.obj
 0003:00015a70       ?snAgImgFname@@3Uoid@@A    10084a70     Foundry.obj
 0003:00015ec0       ?snAgImgLoad@@3Uoid@@A     10084ec0     Foundry.obj
 0003:00016310       ?snAgCfgFname@@3Uoid@@A    10085310     Foundry.obj
 0003:00016760       ?snAgCfgLoad@@3Uoid@@A     10085760     Foundry.obj
 0003:00016bb0       ??_R0PAVCInternetException@@@8 10085bb0     HttpMonitor.obj
 0003:00016bd8       ?interfaces_ifnumber_oid@@3Uoid@@A 10085bd8     Interfaces.obj
 0003:00017028       ?interfaces_iftable_oid@@3Uoid@@A 10086028     Interfaces.obj
 0003:00017478       ?interfaces_ifother_oid@@3Uoid@@A 10086478     Interfaces.obj
 0003:000178c8       ?cisco_iftable_oid@@3Uoid@@A 100868c8     Interfaces.obj
 0003:00017d18       ??_R0?AVlogic_error@std@@@8 10086d18     monitor.obj
 0003:00017d38       ??_R0?AVlength_error@std@@@8 10086d38     monitor.obj
 0003:00017d58       ?NS_res_oids@@3PAUoid@@A   10086d58     NetScreen.obj
 0003:0001acc8       ?NS_service_oids@@3PAUoid@@A 10089cc8     NetScreen.obj
 0003:0001d7e8       ?NS_servicegroup_oids@@3PAUoid@@A 1008c7e8     NetScreen.obj
 0003:0001ed78       ?NS_servicegroupmember_oids@@3PAUoid@@A 1008dd78     NetScreen.obj
 0003:0001feb8       ?NS_vpn_oids@@3PAUoid@@A   1008eeb8     NetScreen.obj
 0003:00027778       ?NS_attack_oids@@3PAUoid@@A 10096778     NetScreen.obj
 0003:0002af88       ?NS_packdrop_oids@@3PAUoid@@A 10099f88     NetScreen.obj
 0003:0002e348       ?ipRouteTable_oid@@3Uoid@@A 1009d348     RouteTable.obj
 0003:0002e798       ?ipRouteDest_oid@@3Uoid@@A 1009d798     RouteTable.obj
 0003:0002ebe8       ?ipRouteIfIndex_oid@@3Uoid@@A 1009dbe8     RouteTable.obj
 0003:0002f038       ?ipRouteMetric1_oid@@3Uoid@@A 1009e038     RouteTable.obj
 0003:0002f488       ?ipRouteMetric2_oid@@3Uoid@@A 1009e488     RouteTable.obj
 0003:0002f8d8       ?ipRouteMetric3_oid@@3Uoid@@A 1009e8d8     RouteTable.obj
 0003:0002fd28       ?ipRouteMetric4_oid@@3Uoid@@A 1009ed28     RouteTable.obj
 0003:00030178       ?ipRouteNextHop_oid@@3Uoid@@A 1009f178     RouteTable.obj
 0003:000305c8       ?ipRouteType_oid@@3Uoid@@A 1009f5c8     RouteTable.obj
 0003:00030a18       ?ipRouteProto_oid@@3Uoid@@A 1009fa18     RouteTable.obj
 0003:00030e68       ?ipRouteAge_oid@@3Uoid@@A  1009fe68     RouteTable.obj
 0003:000312b8       ?ipRouteMask_oid@@3Uoid@@A 100a02b8     RouteTable.obj
 0003:00031708       ?ipRouteMetric5_oid@@3Uoid@@A 100a0708     RouteTable.obj
 0003:00031b58       ?system_oid@@3Uoid@@A      100a0b58     SnmpUtils.obj
 0003:00031fa8       ?rfc1213_oids@@3PAUoid@@A  100a0fa8     SnmpUtils.obj
 0003:00060e08       ?ol@@3PAUOL@@A             100cfe08     TelMonitor.obj
 0003:00060e38       ?terminal@@3PAUTERMINAL@@A 100cfe38     TelMonitor.obj
 0003:00060e48       ?codec@@3PAUCODEC@@A       100cfe48     TelMonitor.obj
 0003:00060e80       ?ifIndex_oid@@3Uoid@@A     100cfe80     Traffic.obj
 0003:000612d0       ?ifDescr_oid@@3Uoid@@A     100d02d0     Traffic.obj
 0003:00061720       ?ifType_oid@@3Uoid@@A      100d0720     Traffic.obj
 0003:00061b70       ?ifMtu_oid@@3Uoid@@A       100d0b70     Traffic.obj
 0003:00061fc0       ?ifSpeed_oid@@3Uoid@@A     100d0fc0     Traffic.obj
 0003:00062410       ?ifPhysAddress_oid@@3Uoid@@A 100d1410     Traffic.obj
 0003:00062860       ?ifAdminStatus_oid@@3Uoid@@A 100d1860     Traffic.obj
 0003:00062cb0       ?ifOperStatus_oid@@3Uoid@@A 100d1cb0     Traffic.obj
 0003:00063100       ?ifLastChange_oid@@3Uoid@@A 100d2100     Traffic.obj
 0003:00063550       ?ifInUcastPkts_oid@@3Uoid@@A 100d2550     Traffic.obj
 0003:000639a0       ?ifInNUcastPkts_oid@@3Uoid@@A 100d29a0     Traffic.obj
 0003:00063df0       ?ifInErrors_oid@@3Uoid@@A  100d2df0     Traffic.obj
 0003:00064240       ?ifInUnknownProtos_oid@@3Uoid@@A 100d3240     Traffic.obj
 0003:00064690       ?ifOutUcastPkts_oid@@3Uoid@@A 100d3690     Traffic.obj
 0003:00064ae0       ?ifOutNUcastPkts_oid@@3Uoid@@A 100d3ae0     Traffic.obj
 0003:00064f30       ?ifOutErrors_oid@@3Uoid@@A 100d3f30     Traffic.obj
 0003:00065380       ?ifOutQLen_oid@@3Uoid@@A   100d4380     Traffic.obj
 0003:000657d0       ?ifSpecific_oid@@3Uoid@@A  100d47d0     Traffic.obj
 0003:00065c20       ?bea_oids@@3PAUoid@@A      100d4c20     WebLogic5x.obj
 0003:0006b260       ?jmsRuntimeTable@@3Uoid@@A 100da260     WebLogic7x.obj
 0003:0006b6b0       ?jmsRuntimeIndex@@3Uoid@@A 100da6b0     WebLogic7x.obj
 0003:0006bb00       ?jmsRuntimeObjectName@@3Uoid@@A 100dab00     WebLogic7x.obj
 0003:0006bf50       ?jmsRuntimeType@@3Uoid@@A  100daf50     WebLogic7x.obj
 0003:0006c3a0       ?jmsRuntimeName@@3Uoid@@A  100db3a0     WebLogic7x.obj
 0003:0006c7f0       ?jmsRuntimeParent@@3Uoid@@A 100db7f0     WebLogic7x.obj
 0003:0006cc40       ?jmsRuntimeConnections@@3Uoid@@A 100dbc40     WebLogic7x.obj
 0003:0006d090       ?jmsRuntimeConnectionsCurrentCount@@3Uoid@@A 100dc090     WebLogic7x.obj
 0003:0006d4e0       ?jmsRuntimeConnectionsHighCount@@3Uoid@@A 100dc4e0     WebLogic7x.obj
 0003:0006d930       ?jmsRuntimeConnectionsTotalCount@@3Uoid@@A 100dc930     WebLogic7x.obj
 0003:0006dd80       ?jmsRuntimeJMSServers@@3Uoid@@A 100dcd80     WebLogic7x.obj
 0003:0006e1d0       ?jmsRuntimeJMSServersCurrentCount@@3Uoid@@A 100dd1d0     WebLogic7x.obj
 0003:0006e620       ?jmsRuntimeJMSServersHighCount@@3Uoid@@A 100dd620     WebLogic7x.obj
 0003:0006ea70       ?jmsRuntimeJMSServersTotalCount@@3Uoid@@A 100dda70     WebLogic7x.obj
 0003:0006eec0       __pRawDllMain              100ddec0     mfcs71:dllmodul.obj
 0003:0006eec4       ??_R0?AVCNoTrackObject@@@8 100ddec4     mfcs71:dllmodul.obj
 0003:0006eee4       ??_R0?AVAFX_MODULE_STATE@@@8 100ddee4     mfcs71:dllmodul.obj
 0003:0006ef04       ??_R0?AV_AFX_DLL_MODULE_STATE@@@8 100ddf04     mfcs71:dllmodul.obj
 0003:0006ef30       ___security_cookie         100ddf30     msvcrt:seccook.obj
 0003:0006ef34       ??_R0?AVtype_info@@@8      100ddf34     msvcrt:ti_inst.obj
 0003:0006ef4c       ?__errorPfn@@3P6GXJPAUIErrorInfo@@@ZA 100ddf4c     comsuppw:comsupp.obj
 0003:0006ef50       ?vtMissing@@3V_variant_t@@A 100ddf50     comsuppw:comutil.obj
 0003:0006ef60       ?m_bInitFailed@CAtlBaseModule@ATL@@2_NA 100ddf60     AddrTable.obj
 0003:0006efb8       ?m_sBase64Alphabet@CBase64@@1V?$CStringT@DV?$StrTraitMFC_DLL@DV?$ChTraitsCRT@D@ATL@@@@@ATL@@A 100ddfb8     Base64.obj
 0003:0006f0f0       ?ctrlSocket@@3IA           100de0f0     FTP.obj
 0003:0006f0f4       ?dataSocket@@3IA           100de0f4     FTP.obj
 0003:0006f0f8       ?beginTickCount@@3KA       100de0f8     FTP.obj
 0003:0006f0fc       ?endTickCount@@3KA         100de0fc     FTP.obj
 0003:0006f100       ?recvTickCount@@3KA        100de100     FTP.obj
 0003:0006f104       ?recvBytes@@3KA            100de104     FTP.obj
 0003:0006f108       ?remote_host@@3PADA        100de108     FTP.obj
 0003:0006f148       ?remote_port@@3HA          100de148     FTP.obj
 0003:0006f150       ?local_host@@3PADA         100de150     FTP.obj
 0003:0006f190       ?local_port@@3HA           100de190     FTP.obj
 0003:0006f194       ?passive_mode@@3HA         100de194     FTP.obj
 0003:0006f298       ?m_MIMETypeManager@CMIMEMessage@@0VCMIMETypeManager@1@A 100de298     MIMEMessage.obj
 0003:0006f2d8       ?theApp@@3VCMonitorApp@@A  100de2d8     monitor.obj
 0003:0006f570       ?rlogin_databuffer@@3PADA  100de570     RloginMonitor.obj
 0003:00169570       ?rlogin_datalen@@3HA       101d8570     RloginMonitor.obj
 0003:0016969c       ?strContent@@3V?$CStringT@DV?$StrTraitMFC_DLL@DV?$ChTraitsCRT@D@ATL@@@@@ATL@@A 101d869c     URL.obj
 0003:001696a0       ?g_hInstance@@3PAUHINSTANCE__@@A 101d86a0     Utils.obj
 0003:001696a4       ?g_hInstance2@@3PAUHINSTANCE__@@A 101d86a4     Utils.obj
 0003:001696c4       ?g_ThreadID@@3KA           101d86c4     VPN.obj
 0003:001696c8       ?g_hRasDialConn@@3PAUHRASCONN__@@A 101d86c8     VPN.obj
 0003:001696cc       ?g_hRasVpnConn@@3PAUHRASCONN__@@A 101d86cc     VPN.obj
 0003:00169724       __afxForceEXCLUDE          101d8724     mfcs71:nolib.obj
 0003:0016973c       __afxForceUSRDLL           101d873c     mfcs71:dllmodul.obj
 0003:0016a7d0       __afxForceSTDAFX           101d97d0     mfcs71:stdafx.obj
 0003:0016a7d8       ?_AtlBaseModule@ATL@@3VCAtlBaseModule@1@A 101d97d8     atls:atlbase.obj
 0003:0016a814       __adjust_fdiv              101d9814     <common>
 0003:0016a818       ___onexitend               101d9818     <common>
 0003:0016a81c       ___onexitbegin             101d981c     <common>

 entry point at        0001:00058eab

 Static symbols

 0001:000071e1       $L132386                   100081e1 f   DB.obj
 0001:0000bcda       $L132701                   1000ccda f   HttpMonitor.obj
 0001:0003bc5d       $L222229                   1003cc5d f   monitor.obj
 0001:0003c8fd       $L222653                   1003d8fd f   monitor.obj
 0001:0003d53f       $L223092                   1003e53f f   monitor.obj
 0001:0003e506       $L223576                   1003f506 f   monitor.obj
 0001:0003f290       $L224026                   10040290 f   monitor.obj
 0001:0003ff58       $L224500                   10040f58 f   monitor.obj
 0001:0004127f       $L226852                   1004227f f i monitor.obj
 0001:000420fa       $L228719                   100430fa f   monitor.obj
 0001:00051292       $L132321                   10052292 f   Sybase.obj
 0001:00053184       $L134160                   10054184 f   TelMonitor.obj
 0001:000532fb       $L134162                   100542fb f   TelMonitor.obj
 0001:000536b4       $L135595                   100546b4 f   TelMonitor.obj
 0001:000537c8       $L135597                   100547c8 f   TelMonitor.obj
 0001:000561f6       $L133267                   100571f6 f   Utils.obj
 0001:00058bdd       _report_failure            10059bdd f   msvcrt:secchk.obj
 0001:00059380       $L105313                   1005a380 f   ado.obj
 0001:00059389       $L105314                   1005a389 f   ado.obj
 0001:00059392       $L105315                   1005a392 f   ado.obj
 0001:0005939b       __ehhandler$?Format@COleDateTime@ATL@@QBE?AV?$CStringT@DV?$StrTraitMFC_DLL@DV?$ChTraitsCRT@D@ATL@@@@@2@PBD@Z 1005a39b f   ado.obj
 0001:000593b0       $L105752                   1005a3b0 f   ado.obj
 0001:000593b9       __ehhandler$??HATL@@YA?AV?$CStringT@DV?$StrTraitMFC_DLL@DV?$ChTraitsCRT@D@ATL@@@@@0@ABV10@0@Z 1005a3b9 f   ado.obj
 0001:000593d0       $L134909                   1005a3d0 f   AIXErrpt.obj
 0001:000593d9       $L134910                   1005a3d9 f   AIXErrpt.obj
 0001:000593e2       $L134911                   1005a3e2 f   AIXErrpt.obj
 0001:000593eb       $L134912                   1005a3eb f   AIXErrpt.obj
 0001:000593f4       __ehhandler$?GetConfirms@@YAHV?$CStringT@DV?$StrTraitMFC_DLL@DV?$ChTraitsCRT@D@ATL@@@@@ATL@@@Z 1005a3f4 f   AIXErrpt.obj
 0001:00059400       $L135029                   1005a400 f   AIXErrpt.obj
 0001:0005940c       __ehhandler$?AIXERRPT_SSH_VALUE@@YAHPADH000H0000@Z 1005a40c f   AIXErrpt.obj
 0001:00059420       $L130759                   1005a420 f   Base64.obj
 0001:00059429       __ehhandler$?Encode@CBase64@@UAE?AV?$CStringT@DV?$StrTraitMFC_DLL@DV?$ChTraitsCRT@D@ATL@@@@@ATL@@PBDH@Z 1005a429 f   Base64.obj
 0001:00059440       $L130795                   1005a440 f   Base64.obj
 0001:0005944c       __ehhandler$?Decode@CBase64@@UAEHPBDPAD@Z 1005a44c f   Base64.obj
 0001:00059460       $L132585                   1005a460 f   CheckPoint.obj
 0001:00059469       __ehhandler$?CHECKPOINT_MONITOR@@YAHPADH0V?$CStringT@DV?$StrTraitMFC_DLL@DV?$ChTraitsCRT@D@ATL@@@@@ATL@@HH00@Z 1005a469 f   CheckPoint.obj
 0001:00059480       $L132829                   1005a480 f   CiscoCPU.obj
 0001:00059489       $L132830                   1005a489 f   CiscoCPU.obj
 0001:00059492       __ehhandler$?HUAWEISWITCH_CPU@@YAHPADHV?$CStringT@DV?$StrTraitMFC_DLL@DV?$ChTraitsCRT@D@ATL@@@@@ATL@@0HH010@Z 1005a492 f   CiscoCPU.obj
 0001:000594a0       $L132749                   1005a4a0 f   CiscoCPU.obj
 0001:000594a0       $L132886                   1005a4a0 f   CiscoCPU.obj
 0001:000594a9       __ehhandler$?HUAWEICPU_MONITOR@@YAHPADHV?$CStringT@DV?$StrTraitMFC_DLL@DV?$ChTraitsCRT@D@ATL@@@@@ATL@@0HH00@Z 1005a4a9 f   CiscoCPU.obj
 0001:000594a9       __ehhandler$?CISCOCPU_MONITOR@@YAHPADHV?$CStringT@DV?$StrTraitMFC_DLL@DV?$ChTraitsCRT@D@ATL@@@@@ATL@@0HH00@Z 1005a4a9 f   CiscoCPU.obj
 0001:000594c0       $L133567                   1005a4c0 f   CiscoLog.obj
 0001:000594cc       $L133569                   1005a4cc f   CiscoLog.obj
 0001:000594d8       __ehhandler$?CISCOCONFIG_MONITOR62@@YAHPADH000000000H0000@Z 1005a4d8 f   CiscoLog.obj
 0001:000594f0       $L133237                   1005a4f0 f   Cluster.obj
 0001:000594f9       $L133238                   1005a4f9 f   Cluster.obj
 0001:00059502       $L133239                   1005a502 f   Cluster.obj
 0001:0005950b       __ehhandler$?GetStringFromLineNo@@YA?AV?$CStringT@DV?$StrTraitMFC_DLL@DV?$ChTraitsCRT@D@ATL@@@@@ATL@@V12@H@Z 1005a50b f   Cluster.obj
 0001:00059520       $L133264                   1005a520 f   Cluster.obj
 0001:00059529       $L133265                   1005a529 f   Cluster.obj
 0001:00059532       $L133266                   1005a532 f   Cluster.obj
 0001:0005953b       $L133270                   1005a53b f   Cluster.obj
 0001:00059544       $L133271                   1005a544 f   Cluster.obj
 0001:0005954d       __ehhandler$?GetColumnFromLine@@YA?AV?$CStringT@DV?$StrTraitMFC_DLL@DV?$ChTraitsCRT@D@ATL@@@@@ATL@@V12@H@Z 1005a54d f   Cluster.obj
 0001:00059560       $L133749                   1005a560 f   Cluster.obj
 0001:0005956c       $L133750                   1005a56c f   Cluster.obj
 0001:00059578       $L133752                   1005a578 f   Cluster.obj
 0001:00059584       $L133754                   1005a584 f   Cluster.obj
 0001:00059590       $L133758                   1005a590 f   Cluster.obj
 0001:0005959c       $L133760                   1005a59c f   Cluster.obj
 0001:000595a8       $L133762                   1005a5a8 f   Cluster.obj
 0001:000595b4       $L133766                   1005a5b4 f   Cluster.obj
 0001:000595c0       $L133768                   1005a5c0 f   Cluster.obj
 0001:000595cc       $L133770                   1005a5cc f   Cluster.obj
 0001:000595d8       $L133772                   1005a5d8 f   Cluster.obj
 0001:000595e4       __ehhandler$?TELCLUSTER_MONITOR@@YAHPADH000H000000000@Z 1005a5e4 f   Cluster.obj
 0001:000595f0       $L133832                   1005a5f0 f   Cluster.obj
 0001:000595fc       $L133833                   1005a5fc f   Cluster.obj
 0001:00059608       $L133837                   1005a608 f   Cluster.obj
 0001:00059614       $L133838                   1005a614 f   Cluster.obj
 0001:00059620       $L133840                   1005a620 f   Cluster.obj
 0001:0005962c       $L133842                   1005a62c f   Cluster.obj
 0001:00059638       $L133846                   1005a638 f   Cluster.obj
 0001:00059644       $L133848                   1005a644 f   Cluster.obj
 0001:00059650       $L133850                   1005a650 f   Cluster.obj
 0001:0005965c       $L133854                   1005a65c f   Cluster.obj
 0001:00059668       $L133856                   1005a668 f   Cluster.obj
 0001:00059674       $L133858                   1005a674 f   Cluster.obj
 0001:00059680       $L133860                   1005a680 f   Cluster.obj
 0001:0005968c       __ehhandler$?SSHCLUSTER_MONITOR@@YAHPADH000000@Z 1005a68c f   Cluster.obj
 0001:000596a0       $L133918                   1005a6a0 f   Cluster.obj
 0001:000596ac       $L133919                   1005a6ac f   Cluster.obj
 0001:000596b8       $L133921                   1005a6b8 f   Cluster.obj
 0001:000596c4       $L133923                   1005a6c4 f   Cluster.obj
 0001:000596d0       $L133927                   1005a6d0 f   Cluster.obj
 0001:000596dc       $L133929                   1005a6dc f   Cluster.obj
 0001:000596e8       $L133931                   1005a6e8 f   Cluster.obj
 0001:000596f4       $L133935                   1005a6f4 f   Cluster.obj
 0001:00059700       $L133937                   1005a700 f   Cluster.obj
 0001:0005970c       $L133939                   1005a70c f   Cluster.obj
 0001:00059718       $L133941                   1005a718 f   Cluster.obj
 0001:00059724       __ehhandler$?HTTPCLUSTER_MONITOR@@YAHPAD000H000000@Z 1005a724 f   Cluster.obj
 0001:00059730       $L134016                   1005a730 f   Cluster.obj
 0001:0005973c       $L134017                   1005a73c f   Cluster.obj
 0001:00059748       $L134019                   1005a748 f   Cluster.obj
 0001:00059754       $L134021                   1005a754 f   Cluster.obj
 0001:00059760       $L134025                   1005a760 f   Cluster.obj
 0001:0005976c       $L134027                   1005a76c f   Cluster.obj
 0001:00059778       $L134029                   1005a778 f   Cluster.obj
 0001:00059784       $L134033                   1005a784 f   Cluster.obj
 0001:00059790       $L134035                   1005a790 f   Cluster.obj
 0001:0005979c       $L134037                   1005a79c f   Cluster.obj
 0001:000597a8       $L134039                   1005a7a8 f   Cluster.obj
 0001:000597b4       __ehhandler$?RLOGINCLUSTER_MONITOR@@YAHPADH000H00000000@Z 1005a7b4 f   Cluster.obj
 0001:000597c0       $L133233                   1005a7c0 f   Ctron.obj
 0001:000597c9       $L133246                   1005a7c9 f   Ctron.obj
 0001:000597d5       $L133247                   1005a7d5 f   Ctron.obj
 0001:000597e1       __ehhandler$?CTRONETHERSTATUS_MONITOR@@YAHPADH0V?$CStringT@DV?$StrTraitMFC_DLL@DV?$ChTraitsCRT@D@ATL@@@@@ATL@@HHHH00@Z 1005a7e1 f   Ctron.obj
 0001:000597f0       $L132387                   1005a7f0 f   DB.obj
 0001:000597fb       $L132388                   1005a7fb f   DB.obj
 0001:00059804       $L132390                   1005a804 f   DB.obj
 0001:0005980e       $L132391                   1005a80e f   DB.obj
 0001:00059817       $L132393                   1005a817 f   DB.obj
 0001:00059820       __ehhandler$?DB_MONITOR@@YAHPAD0HH0000000@Z 1005a820 f   DB.obj
 0001:00059830       $L132625                   1005a830 f   DNS.obj
 0001:00059839       __ehhandler$?VerifyDNS@@YAHPAEHAAVCStringList@@@Z 1005a839 f   DNS.obj
 0001:00059850       $L132582                   1005a850 f   Dynamo.obj
 0001:00059859       __ehhandler$?DYNAMO_MONITOR@@YAHPADH0V?$CStringT@DV?$StrTraitMFC_DLL@DV?$ChTraitsCRT@D@ATL@@@@@ATL@@HH00@Z 1005a859 f   Dynamo.obj
 0001:00059870       $L132563                   1005a870 f   F5.obj
 0001:00059879       __ehhandler$?F5_MONITOR@@YAHPADH0V?$CStringT@DV?$StrTraitMFC_DLL@DV?$ChTraitsCRT@D@ATL@@@@@ATL@@HH00@Z 1005a879 f   F5.obj
 0001:00059890       $L132963                   1005a890 f   Foundry.obj
 0001:00059899       __ehhandler$?FOUNDRYCPU_MONITOR@@YAHPADH0V?$CStringT@DV?$StrTraitMFC_DLL@DV?$ChTraitsCRT@D@ATL@@@@@ATL@@HH00@Z 1005a899 f   Foundry.obj
 0001:000598b0       $L132852                   1005a8b0 f   FTP.obj
 0001:000598bc       $L132853                   1005a8bc f   FTP.obj
 0001:000598c8       __ehhandler$?OpenDataChannel@@YAHPADHH0H000@Z 1005a8c8 f   FTP.obj
 0001:000598e0       $L132890                   1005a8e0 f   FTP.obj
 0001:000598e9       __ehhandler$?FTP_COMMAND@@YAHIV?$CStringT@DV?$StrTraitMFC_DLL@DV?$ChTraitsCRT@D@ATL@@@@@ATL@@AAV12@@Z 1005a8e9 f   FTP.obj
 0001:00059900       $L132924                   1005a900 f   FTP.obj
 0001:00059909       $L132925                   1005a909 f   FTP.obj
 0001:00059912       __ehhandler$?EnterPassiveMode@@YAHXZ 1005a912 f   FTP.obj
 0001:00059920       $L133410                   1005a920 f   FTP.obj
 0001:0005992c       $L133411                   1005a92c f   FTP.obj
 0001:00059938       $L133418                   1005a938 f   FTP.obj
 0001:00059944       __ehhandler$?OpenControlChannel@@YAHPADH00H0H0H000@Z 1005a944 f   FTP.obj
 0001:00059950       $L66327                    1005a950 f   funcGeneral.obj
 0001:00059959       $L66328                    1005a959 f   funcGeneral.obj
 0001:00059962       __ehhandler$?FuncGetInstallPath@@YA?AV?$CStringT@DV?$StrTraitMFC_DLL@DV?$ChTraitsCRT@D@ATL@@@@@ATL@@XZ 1005a962 f   funcGeneral.obj
 0001:00059970       $L66393                    1005a970 f   funcGeneral.obj
 0001:0005997c       $L66397                    1005a97c f   funcGeneral.obj
 0001:00059988       $L66398                    1005a988 f   funcGeneral.obj
 0001:00059994       __ehhandler$?FuncGetInstallRootPath@@YA?AV?$CStringT@DV?$StrTraitMFC_DLL@DV?$ChTraitsCRT@D@ATL@@@@@ATL@@XZ 1005a994 f   funcGeneral.obj
 0001:000599a0       $L66426                    1005a9a0 f   funcGeneral.obj
 0001:000599ac       $L66427                    1005a9ac f   funcGeneral.obj
 0001:000599b8       $L66428                    1005a9b8 f   funcGeneral.obj
 0001:000599c4       $L66429                    1005a9c4 f   funcGeneral.obj
 0001:000599d0       $L66430                    1005a9d0 f   funcGeneral.obj
 0001:000599dc       $L66431                    1005a9dc f   funcGeneral.obj
 0001:000599e8       __ehhandler$?DFN_GetPrivateProfileString@@YAKPBD00PADK0@Z 1005a9e8 f   funcGeneral.obj
 0001:00059a00       $L66480                    1005aa00 f   funcGeneral.obj
 0001:00059a0c       $L66481                    1005aa0c f   funcGeneral.obj
 0001:00059a18       $L66482                    1005aa18 f   funcGeneral.obj
 0001:00059a24       $L66483                    1005aa24 f   funcGeneral.obj
 0001:00059a30       $L66484                    1005aa30 f   funcGeneral.obj
 0001:00059a3c       $L66485                    1005aa3c f   funcGeneral.obj
 0001:00059a48       $L66486                    1005aa48 f   funcGeneral.obj
 0001:00059a54       __ehhandler$?DFN_WritePrivateProfileString@@YAHPBD000@Z 1005aa54 f   funcGeneral.obj
 0001:00059a60       $L66926                    1005aa60 f   funcGeneral.obj
 0001:00059a69       __ehhandler$?MakeCharByString@@YA_NPADAAHV?$CStringT@DV?$StrTraitMFC_DLL@DV?$ChTraitsCRT@D@ATL@@@@@ATL@@@Z 1005aa69 f   funcGeneral.obj
 0001:00059a80       $L66957                    1005aa80 f   funcGeneral.obj
 0001:00059a8c       $L66958                    1005aa8c f   funcGeneral.obj
 0001:00059a98       __ehhandler$?GetSEIP@@YA?AV?$basic_string@DU?$char_traits@D@std@@V?$allocator@D@2@@std@@XZ 1005aa98 f   funcGeneral.obj
 0001:00059ab0       $L66975                    1005aab0 f   funcGeneral.obj
 0001:00059ab9       $L66976                    1005aab9 f   funcGeneral.obj
 0001:00059ac2       $L66977                    1005aac2 f   funcGeneral.obj
 0001:00059acb       $L66979                    1005aacb f   funcGeneral.obj
 0001:00059ae5       __ehhandler$?GetResourceValue@@YA?AV?$basic_string@DU?$char_traits@D@std@@V?$allocator@D@2@@std@@V12@@Z 1005aae5 f   funcGeneral.obj
 0001:00059af0       $L67415                    1005aaf0 f   funcGeneral.obj
 0001:00059af0       $L67447                    1005aaf0 f   funcGeneral.obj
 0001:00059af9       $L67416                    1005aaf9 f   funcGeneral.obj
 0001:00059af9       $L67448                    1005aaf9 f   funcGeneral.obj
 0001:00059b02       $L67418                    1005ab02 f   funcGeneral.obj
 0001:00059b02       $L67450                    1005ab02 f   funcGeneral.obj
 0001:00059b0b       $L67419                    1005ab0b f   funcGeneral.obj
 0001:00059b0b       $L67451                    1005ab0b f   funcGeneral.obj
 0001:00059b25       __ehhandler$?FuncGetStringFromIDS@@YA?AV?$CStringT@DV?$StrTraitMFC_DLL@DV?$ChTraitsCRT@D@ATL@@@@@ATL@@PBD0@Z 1005ab25 f   funcGeneral.obj
 0001:00059b25       __ehhandler$?FuncGetStringFromIDS@@YA?AV?$CStringT@DV?$StrTraitMFC_DLL@DV?$ChTraitsCRT@D@ATL@@@@@ATL@@PBD@Z 1005ab25 f   funcGeneral.obj
 0001:00059b30       $L132702                   1005ab30 f   HttpMonitor.obj
 0001:00059b3c       $L132703                   1005ab3c f   HttpMonitor.obj
 0001:00059b48       $L132704                   1005ab48 f   HttpMonitor.obj
 0001:00059b55       $L132705                   1005ab55 f   HttpMonitor.obj
 0001:00059b62       $L132706                   1005ab62 f   HttpMonitor.obj
 0001:00059b6e       $L132707                   1005ab6e f   HttpMonitor.obj
 0001:00059b7a       $L132709                   1005ab7a f   HttpMonitor.obj
 0001:00059b86       $L132710                   1005ab86 f   HttpMonitor.obj
 0001:00059b8f       $L132711                   1005ab8f f   HttpMonitor.obj
 0001:00059b9d       $L132712                   1005ab9d f   HttpMonitor.obj
 0001:00059ba9       $L132713                   1005aba9 f   HttpMonitor.obj
 0001:00059bb2       $L132714                   1005abb2 f   HttpMonitor.obj
 0001:00059bbe       $L132715                   1005abbe f   HttpMonitor.obj
 0001:00059bcc       $L132716                   1005abcc f   HttpMonitor.obj
 0001:00059bd8       __ehhandler$?http_command@@YAHPAD0H000H000@Z 1005abd8 f   HttpMonitor.obj
 0001:00059bf0       $L176302                   1005abf0 f   IEEvents.obj
 0001:00059bfc       __ehhandler$??0CFileException@@QAE@HJPBD@Z 1005abfc f   IEEvents.obj
 0001:00059c10       $L132658                   1005ac10 f   iPlanet.obj
 0001:00059c1c       __ehhandler$?IPLANET_MONITOR@@YAHPADH000H0000@Z 1005ac1c f   iPlanet.obj
 0001:00059c30       $L138699                   1005ac30 f   LDAP.obj
 0001:00059c3b       $L138704                   1005ac3b f   LDAP.obj
 0001:00059c47       $L138705                   1005ac47 f   LDAP.obj
 0001:00059c53       __ehhandler$?LDAP_MONITOR@@YAHPADH0000000@Z 1005ac53 f   LDAP.obj
 0001:00059c60       $L139951                   1005ac60 f   LogFile.obj
 0001:00059c69       $L139952                   1005ac69 f   LogFile.obj
 0001:00059c71       $L139953                   1005ac71 f   LogFile.obj
 0001:00059c7a       $L139954                   1005ac7a f   LogFile.obj
 0001:00059c83       __ehhandler$?GetDyn@@YAHV?$basic_string@DU?$char_traits@D@std@@V?$allocator@D@2@@std@@AAHAAV12@@Z 1005ac83 f   LogFile.obj
 0001:00059c90       $L140005                   1005ac90 f   LogFile.obj
 0001:00059c99       $L140006                   1005ac99 f   LogFile.obj
 0001:00059ca2       $L140007                   1005aca2 f   LogFile.obj
 0001:00059cab       $L140008                   1005acab f   LogFile.obj
 0001:00059cb4       $L140009                   1005acb4 f   LogFile.obj
 0001:00059cbd       __ehhandler$?GetColumnFromLine@@YAHV?$CStringT@DV?$StrTraitMFC_DLL@DV?$ChTraitsCRT@D@ATL@@@@@ATL@@HAAJ@Z 1005acbd f   LogFile.obj
 0001:00059cd0       $L140054                   1005acd0 f   LogFile.obj
 0001:00059cd9       $L140055                   1005acd9 f   LogFile.obj
 0001:00059ce2       $L140056                   1005ace2 f   LogFile.obj
 0001:00059ceb       __ehhandler$?WriteLogData@@YAXPADPBD@Z 1005aceb f   LogFile.obj
 0001:00059d00       $L140088                   1005ad00 f   LogFile.obj
 0001:00059d09       $L140089                   1005ad09 f   LogFile.obj
 0001:00059d12       $L140090                   1005ad12 f   LogFile.obj
 0001:00059d1b       $L140091                   1005ad1b f   LogFile.obj
 0001:00059d24       __ehhandler$?WriteLogTime@@YAXPBD@Z 1005ad24 f   LogFile.obj
 0001:00059d30       $L140560                   1005ad30 f   LogFile.obj
 0001:00059d39       $L140561                   1005ad39 f   LogFile.obj
 0001:00059d42       $L140563                   1005ad42 f   LogFile.obj
 0001:00059d4b       __ehhandler$?ParserContent@@YAHPADAAJ1000@Z 1005ad4b f   LogFile.obj
 0001:00059d60       $L140586                   1005ad60 f   LogFile.obj
 0001:00059d60       $L140639                   1005ad60 f   LogFile.obj
 0001:00059d6c       __ehhandler$?TelLogFileSize@@YAHHPAD0AAJ@Z 1005ad6c f   LogFile.obj
 0001:00059d6c       __ehhandler$?SshLogFileSize@@YAHPADH00000AAJ@Z 1005ad6c f   LogFile.obj
 0001:00059d80       $L140712                   1005ad80 f   LogFile.obj
 0001:00059d8c       __ehhandler$?TelLogFileExist@@YAHHPAD0@Z 1005ad8c f   LogFile.obj
 0001:00059da0       $L140769                   1005ada0 f   LogFile.obj
 0001:00059dac       $L140770                   1005adac f   LogFile.obj
 0001:00059db8       __ehhandler$?SshLogFileExist@@YAHPADH00000@Z 1005adb8 f   LogFile.obj
 0001:00059dd0       $L142180                   1005add0 f   LogFile.obj
 0001:00059ddc       $L142199                   1005addc f   LogFile.obj
 0001:00059de8       __ehhandler$?LOGFILE_TEL_VALUE@@YAHPADH000H000000000HH00H0@Z 1005ade8 f   LogFile.obj
 0001:00059e00       $L142273                   1005ae00 f   LogFile.obj
 0001:00059e0c       $L142279                   1005ae0c f   LogFile.obj
 0001:00059e18       $L142280                   1005ae18 f   LogFile.obj
 0001:00059e24       __ehhandler$?LOGFILE_SSH_VALUE@@YAHPADH000000HH00H00@Z 1005ae24 f   LogFile.obj
 0001:00059e30       $L131721                   1005ae30 f   MIMEMessage.obj
 0001:00059e38       __ehhandler$??0CCriticalSection@@QAE@XZ 1005ae38 f   MIMEMessage.obj
 0001:00059e50       $L132320                   1005ae50 f   MIMEMessage.obj
 0001:00059e5b       $L132321                   1005ae5b f   MIMEMessage.obj
 0001:00059e66       __ehhandler$??1CMIMETypeManager@CMIMEMessage@@UAE@XZ 1005ae66 f   MIMEMessage.obj
 0001:00059e70       $L196163                   1005ae70 f   monitor.obj
 0001:00059e70       $L226921                   1005ae70 f   monitor.obj
 0001:00059e79       __ehhandler$??0logic_error@std@@QAE@ABV01@@Z 1005ae79 f   monitor.obj
 0001:00059e79       __ehhandler$??1logic_error@std@@UAE@XZ 1005ae79 f   monitor.obj
 0001:00059e90       $L196232                   1005ae90 f   monitor.obj
 0001:00059e99       $L196233                   1005ae99 f   monitor.obj
 0001:00059ea2       $L196234                   1005aea2 f   monitor.obj
 0001:00059eab       $L196235                   1005aeab f   monitor.obj
 0001:00059eb4       $L196236                   1005aeb4 f   monitor.obj
 0001:00059ebd       $L196237                   1005aebd f   monitor.obj
 0001:00059ec6       $L196238                   1005aec6 f   monitor.obj
 0001:00059ecf       $L196239                   1005aecf f   monitor.obj
 0001:00059ed8       $L196240                   1005aed8 f   monitor.obj
 0001:00059ee1       $L196241                   1005aee1 f   monitor.obj
 0001:00059eea       $L196243                   1005aeea f   monitor.obj
 0001:00059ef3       $L196244                   1005aef3 f   monitor.obj
 0001:00059efc       $L196245                   1005aefc f   monitor.obj
 0001:00059f05       $L196247                   1005af05 f   monitor.obj
 0001:00059f0e       $L196248                   1005af0e f   monitor.obj
 0001:00059f17       $L196249                   1005af17 f   monitor.obj
 0001:00059f20       $L196250                   1005af20 f   monitor.obj
 0001:00059f29       __ehhandler$?SSHAIXERRPT@@YAHAAVCStringList@@PAD@Z 1005af29 f   monitor.obj
 0001:00059f40       $L197788                   1005af40 f   monitor.obj
 0001:00059f49       $L197789                   1005af49 f   monitor.obj
 0001:00059f52       $L197790                   1005af52 f   monitor.obj
 0001:00059f5b       $L197791                   1005af5b f   monitor.obj
 0001:00059f64       $L197792                   1005af64 f   monitor.obj
 0001:00059f6d       $L197793                   1005af6d f   monitor.obj
 0001:00059f76       $L197794                   1005af76 f   monitor.obj
 0001:00059f7f       $L197795                   1005af7f f   monitor.obj
 0001:00059f88       $L197796                   1005af88 f   monitor.obj
 0001:00059f91       $L197797                   1005af91 f   monitor.obj
 0001:00059f9a       $L197798                   1005af9a f   monitor.obj
 0001:00059fa3       $L197799                   1005afa3 f   monitor.obj
 0001:00059fac       $L197800                   1005afac f   monitor.obj
 0001:00059fb8       $L197801                   1005afb8 f   monitor.obj
 0001:00059fc4       $L197802                   1005afc4 f   monitor.obj
 0001:00059fcd       $L197804                   1005afcd f   monitor.obj
 0001:00059fd6       $L197805                   1005afd6 f   monitor.obj
 0001:00059fdf       $L197806                   1005afdf f   monitor.obj
 0001:00059fe8       $L197807                   1005afe8 f   monitor.obj
 0001:00059ff1       $L197808                   1005aff1 f   monitor.obj
 0001:00059ffa       $L197809                   1005affa f   monitor.obj
 0001:0005a003       $L197810                   1005b003 f   monitor.obj
 0001:0005a00c       $L197811                   1005b00c f   monitor.obj
 0001:0005a015       $L197812                   1005b015 f   monitor.obj
 0001:0005a01e       $L197813                   1005b01e f   monitor.obj
 0001:0005a027       $L197814                   1005b027 f   monitor.obj
 0001:0005a030       $L197815                   1005b030 f   monitor.obj
 0001:0005a039       $L197816                   1005b039 f   monitor.obj
 0001:0005a042       __ehhandler$?TELCLUSTER@@YAHAAVCStringList@@PAD@Z 1005b042 f   monitor.obj
 0001:0005a050       $L198424                   1005b050 f   monitor.obj
 0001:0005a059       $L198425                   1005b059 f   monitor.obj
 0001:0005a062       $L198426                   1005b062 f   monitor.obj
 0001:0005a06b       $L198427                   1005b06b f   monitor.obj
 0001:0005a074       $L198428                   1005b074 f   monitor.obj
 0001:0005a07d       $L198429                   1005b07d f   monitor.obj
 0001:0005a086       $L198430                   1005b086 f   monitor.obj
 0001:0005a08f       $L198431                   1005b08f f   monitor.obj
 0001:0005a098       $L198432                   1005b098 f   monitor.obj
 0001:0005a0a1       $L198433                   1005b0a1 f   monitor.obj
 0001:0005a0aa       $L198434                   1005b0aa f   monitor.obj
 0001:0005a0b3       $L198435                   1005b0b3 f   monitor.obj
 0001:0005a0bc       $L198436                   1005b0bc f   monitor.obj
 0001:0005a0c5       $L198437                   1005b0c5 f   monitor.obj
 0001:0005a0ce       $L198438                   1005b0ce f   monitor.obj
 0001:0005a0d7       $L198439                   1005b0d7 f   monitor.obj
 0001:0005a0e0       $L198440                   1005b0e0 f   monitor.obj
 0001:0005a0e9       $L198441                   1005b0e9 f   monitor.obj
 0001:0005a0f2       $L198442                   1005b0f2 f   monitor.obj
 0001:0005a0fb       $L198443                   1005b0fb f   monitor.obj
 0001:0005a104       $L198444                   1005b104 f   monitor.obj
 0001:0005a10d       $L198445                   1005b10d f   monitor.obj
 0001:0005a116       __ehhandler$?HTTPCLUSTER@@YAHAAVCStringList@@PAD@Z 1005b116 f   monitor.obj
 0001:0005a120       $L198694                   1005b120 f   monitor.obj
 0001:0005a129       $L198695                   1005b129 f   monitor.obj
 0001:0005a132       $L198696                   1005b132 f   monitor.obj
 0001:0005a13b       $L198697                   1005b13b f   monitor.obj
 0001:0005a144       $L198698                   1005b144 f   monitor.obj
 0001:0005a14d       $L198699                   1005b14d f   monitor.obj
 0001:0005a156       $L198700                   1005b156 f   monitor.obj
 0001:0005a15f       $L198701                   1005b15f f   monitor.obj
 0001:0005a168       $L198702                   1005b168 f   monitor.obj
 0001:0005a171       $L198703                   1005b171 f   monitor.obj
 0001:0005a17a       $L198704                   1005b17a f   monitor.obj
 0001:0005a183       $L198705                   1005b183 f   monitor.obj
 0001:0005a18c       $L198706                   1005b18c f   monitor.obj
 0001:0005a195       $L198707                   1005b195 f   monitor.obj
 0001:0005a19e       $L198709                   1005b19e f   monitor.obj
 0001:0005a1a7       $L198710                   1005b1a7 f   monitor.obj
 0001:0005a1b0       $L198711                   1005b1b0 f   monitor.obj
 0001:0005a1b9       $L198712                   1005b1b9 f   monitor.obj
 0001:0005a1c2       $L198713                   1005b1c2 f   monitor.obj
 0001:0005a1cb       $L198714                   1005b1cb f   monitor.obj
 0001:0005a1d4       $L198715                   1005b1d4 f   monitor.obj
 0001:0005a1dd       $L198716                   1005b1dd f   monitor.obj
 0001:0005a1e6       $L198717                   1005b1e6 f   monitor.obj
 0001:0005a1ef       $L198718                   1005b1ef f   monitor.obj
 0001:0005a1f8       $L198719                   1005b1f8 f   monitor.obj
 0001:0005a201       $L198720                   1005b201 f   monitor.obj
 0001:0005a20a       __ehhandler$?RLOGINCLUSTER@@YAHAAVCStringList@@PAD@Z 1005b20a f   monitor.obj
 0001:0005a220       $L201338                   1005b220 f   monitor.obj
 0001:0005a22c       $L201339                   1005b22c f   monitor.obj
 0001:0005a238       $L201340                   1005b238 f   monitor.obj
 0001:0005a241       $L201341                   1005b241 f   monitor.obj
 0001:0005a24d       $L201342                   1005b24d f   monitor.obj
 0001:0005a259       $L201343                   1005b259 f   monitor.obj
 0001:0005a265       $L201344                   1005b265 f   monitor.obj
 0001:0005a271       $L201345                   1005b271 f   monitor.obj
 0001:0005a27d       $L201346                   1005b27d f   monitor.obj
 0001:0005a289       $L201347                   1005b289 f   monitor.obj
 0001:0005a292       $L201348                   1005b292 f   monitor.obj
 0001:0005a29e       $L201349                   1005b29e f   monitor.obj
 0001:0005a2a7       $L201350                   1005b2a7 f   monitor.obj
 0001:0005a2b0       $L201351                   1005b2b0 f   monitor.obj
 0001:0005a2bc       $L201352                   1005b2bc f   monitor.obj
 0001:0005a2c8       $L201353                   1005b2c8 f   monitor.obj
 0001:0005a2d4       $L201354                   1005b2d4 f   monitor.obj
 0001:0005a2e0       $L201355                   1005b2e0 f   monitor.obj
 0001:0005a2e9       $L201357                   1005b2e9 f   monitor.obj
 0001:0005a2f2       $L201358                   1005b2f2 f   monitor.obj
 0001:0005a2fb       $L201359                   1005b2fb f   monitor.obj
 0001:0005a304       $L201360                   1005b304 f   monitor.obj
 0001:0005a30d       $L201361                   1005b30d f   monitor.obj
 0001:0005a316       $L201362                   1005b316 f   monitor.obj
 0001:0005a31f       $L201363                   1005b31f f   monitor.obj
 0001:0005a328       $L201364                   1005b328 f   monitor.obj
 0001:0005a331       $L201365                   1005b331 f   monitor.obj
 0001:0005a33a       $L201366                   1005b33a f   monitor.obj
 0001:0005a343       $L201367                   1005b343 f   monitor.obj
 0001:0005a34c       $L201368                   1005b34c f   monitor.obj
 0001:0005a355       $L201369                   1005b355 f   monitor.obj
 0001:0005a35e       $L201371                   1005b35e f   monitor.obj
 0001:0005a367       $L201374                   1005b367 f   monitor.obj
 0001:0005a373       $L201375                   1005b373 f   monitor.obj
 0001:0005a37c       __ehhandler$?TELLOGFILE@@YAHAAVCStringList@@PAD@Z 1005b37c f   monitor.obj
 0001:0005a390       $L201857                   1005b390 f   monitor.obj
 0001:0005a399       $L201858                   1005b399 f   monitor.obj
 0001:0005a3a2       $L201859                   1005b3a2 f   monitor.obj
 0001:0005a3ab       $L201860                   1005b3ab f   monitor.obj
 0001:0005a3b4       $L201861                   1005b3b4 f   monitor.obj
 0001:0005a3bd       $L201862                   1005b3bd f   monitor.obj
 0001:0005a3c6       $L201863                   1005b3c6 f   monitor.obj
 0001:0005a3cf       $L201864                   1005b3cf f   monitor.obj
 0001:0005a3d8       $L201865                   1005b3d8 f   monitor.obj
 0001:0005a3e1       $L201866                   1005b3e1 f   monitor.obj
 0001:0005a3ea       $L201867                   1005b3ea f   monitor.obj
 0001:0005a3f6       $L201868                   1005b3f6 f   monitor.obj
 0001:0005a402       $L201869                   1005b402 f   monitor.obj
 0001:0005a40b       $L201871                   1005b40b f   monitor.obj
 0001:0005a414       $L201872                   1005b414 f   monitor.obj
 0001:0005a41d       $L201873                   1005b41d f   monitor.obj
 0001:0005a426       $L201874                   1005b426 f   monitor.obj
 0001:0005a42f       $L201875                   1005b42f f   monitor.obj
 0001:0005a438       $L201876                   1005b438 f   monitor.obj
 0001:0005a441       $L201878                   1005b441 f   monitor.obj
 0001:0005a44a       $L201880                   1005b44a f   monitor.obj
 0001:0005a453       $L201881                   1005b453 f   monitor.obj
 0001:0005a45c       $L201883                   1005b45c f   monitor.obj
 0001:0005a465       __ehhandler$?SSHLOGFILE@@YAHAAVCStringList@@PAD@Z 1005b465 f   monitor.obj
 0001:0005a470       $L203537                   1005b470 f   monitor.obj
 0001:0005a479       $L203538                   1005b479 f   monitor.obj
 0001:0005a482       $L203539                   1005b482 f   monitor.obj
 0001:0005a48b       $L203540                   1005b48b f   monitor.obj
 0001:0005a497       $L203541                   1005b497 f   monitor.obj
 0001:0005a4a0       $L203542                   1005b4a0 f   monitor.obj
 0001:0005a4a9       $L203543                   1005b4a9 f   monitor.obj
 0001:0005a4b2       $L203544                   1005b4b2 f   monitor.obj
 0001:0005a4bb       $L203545                   1005b4bb f   monitor.obj
 0001:0005a4c4       $L203546                   1005b4c4 f   monitor.obj
 0001:0005a4cd       $L203547                   1005b4cd f   monitor.obj
 0001:0005a4d6       $L203548                   1005b4d6 f   monitor.obj
 0001:0005a4df       $L203549                   1005b4df f   monitor.obj
 0001:0005a4eb       $L203550                   1005b4eb f   monitor.obj
 0001:0005a4f7       $L203551                   1005b4f7 f   monitor.obj
 0001:0005a503       $L203552                   1005b503 f   monitor.obj
 0001:0005a50c       $L203554                   1005b50c f   monitor.obj
 0001:0005a515       $L203555                   1005b515 f   monitor.obj
 0001:0005a51e       $L203556                   1005b51e f   monitor.obj
 0001:0005a527       $L203557                   1005b527 f   monitor.obj
 0001:0005a530       $L203558                   1005b530 f   monitor.obj
 0001:0005a539       $L203559                   1005b539 f   monitor.obj
 0001:0005a542       $L203560                   1005b542 f   monitor.obj
 0001:0005a54b       $L203561                   1005b54b f   monitor.obj
 0001:0005a554       $L203562                   1005b554 f   monitor.obj
 0001:0005a55d       $L203563                   1005b55d f   monitor.obj
 0001:0005a566       $L203564                   1005b566 f   monitor.obj
 0001:0005a56f       $L203565                   1005b56f f   monitor.obj
 0001:0005a578       $L203566                   1005b578 f   monitor.obj
 0001:0005a581       $L203567                   1005b581 f   monitor.obj
 0001:0005a58a       __ehhandler$?TELMQSTATUS@@YA_NAAVCStringList@@PAD@Z 1005b58a f   monitor.obj
 0001:0005a5a0       $L203957                   1005b5a0 f   monitor.obj
 0001:0005a5a9       $L203958                   1005b5a9 f   monitor.obj
 0001:0005a5b2       $L203959                   1005b5b2 f   monitor.obj
 0001:0005a5bb       $L203960                   1005b5bb f   monitor.obj
 0001:0005a5c4       $L203961                   1005b5c4 f   monitor.obj
 0001:0005a5cd       $L203962                   1005b5cd f   monitor.obj
 0001:0005a5d6       $L203963                   1005b5d6 f   monitor.obj
 0001:0005a5df       $L203964                   1005b5df f   monitor.obj
 0001:0005a5e8       $L203965                   1005b5e8 f   monitor.obj
 0001:0005a5f1       $L203966                   1005b5f1 f   monitor.obj
 0001:0005a5fa       $L203967                   1005b5fa f   monitor.obj
 0001:0005a603       $L203968                   1005b603 f   monitor.obj
 0001:0005a60c       $L203969                   1005b60c f   monitor.obj
 0001:0005a618       $L203970                   1005b618 f   monitor.obj
 0001:0005a624       $L203971                   1005b624 f   monitor.obj
 0001:0005a62d       $L203973                   1005b62d f   monitor.obj
 0001:0005a636       $L203974                   1005b636 f   monitor.obj
 0001:0005a63f       $L203975                   1005b63f f   monitor.obj
 0001:0005a648       $L203976                   1005b648 f   monitor.obj
 0001:0005a651       $L203977                   1005b651 f   monitor.obj
 0001:0005a65a       $L203978                   1005b65a f   monitor.obj
 0001:0005a663       $L203979                   1005b663 f   monitor.obj
 0001:0005a66c       $L203980                   1005b66c f   monitor.obj
 0001:0005a675       $L203981                   1005b675 f   monitor.obj
 0001:0005a67e       $L203982                   1005b67e f   monitor.obj
 0001:0005a687       $L203983                   1005b687 f   monitor.obj
 0001:0005a690       $L203984                   1005b690 f   monitor.obj
 0001:0005a699       $L203985                   1005b699 f   monitor.obj
 0001:0005a6a2       __ehhandler$?TELMQ@@YA_NAAVCStringList@@PAD@Z 1005b6a2 f   monitor.obj
 0001:0005a6b0       $L198194                   1005b6b0 f   monitor.obj
 0001:0005a6b0       $L204365                   1005b6b0 f   monitor.obj
 0001:0005a6b9       $L198195                   1005b6b9 f   monitor.obj
 0001:0005a6b9       $L204366                   1005b6b9 f   monitor.obj
 0001:0005a6c2       $L204367                   1005b6c2 f   monitor.obj
 0001:0005a6c2       $L198196                   1005b6c2 f   monitor.obj
 0001:0005a6cb       $L198197                   1005b6cb f   monitor.obj
 0001:0005a6cb       $L204368                   1005b6cb f   monitor.obj
 0001:0005a6d4       $L198198                   1005b6d4 f   monitor.obj
 0001:0005a6d4       $L204369                   1005b6d4 f   monitor.obj
 0001:0005a6dd       $L198199                   1005b6dd f   monitor.obj
 0001:0005a6dd       $L204370                   1005b6dd f   monitor.obj
 0001:0005a6e6       $L204371                   1005b6e6 f   monitor.obj
 0001:0005a6e6       $L198200                   1005b6e6 f   monitor.obj
 0001:0005a6ef       $L198201                   1005b6ef f   monitor.obj
 0001:0005a6ef       $L204372                   1005b6ef f   monitor.obj
 0001:0005a6f8       $L204373                   1005b6f8 f   monitor.obj
 0001:0005a6f8       $L198202                   1005b6f8 f   monitor.obj
 0001:0005a701       $L198204                   1005b701 f   monitor.obj
 0001:0005a701       $L204375                   1005b701 f   monitor.obj
 0001:0005a70a       $L204376                   1005b70a f   monitor.obj
 0001:0005a70a       $L198205                   1005b70a f   monitor.obj
 0001:0005a713       $L198206                   1005b713 f   monitor.obj
 0001:0005a713       $L204377                   1005b713 f   monitor.obj
 0001:0005a71c       $L204378                   1005b71c f   monitor.obj
 0001:0005a71c       $L198207                   1005b71c f   monitor.obj
 0001:0005a725       $L204379                   1005b725 f   monitor.obj
 0001:0005a725       $L198208                   1005b725 f   monitor.obj
 0001:0005a72e       $L198209                   1005b72e f   monitor.obj
 0001:0005a72e       $L204380                   1005b72e f   monitor.obj
 0001:0005a737       __ehhandler$?SSHMQ@@YA_NAAVCStringList@@PAD@Z 1005b737 f   monitor.obj
 0001:0005a737       __ehhandler$?SSHCLUSTER@@YAHAAVCStringList@@PAD@Z 1005b737 f   monitor.obj
 0001:0005a750       $L204596                   1005b750 f   monitor.obj
 0001:0005a759       $L204597                   1005b759 f   monitor.obj
 0001:0005a762       $L204598                   1005b762 f   monitor.obj
 0001:0005a76b       $L204599                   1005b76b f   monitor.obj
 0001:0005a774       $L204600                   1005b774 f   monitor.obj
 0001:0005a77d       $L204601                   1005b77d f   monitor.obj
 0001:0005a786       $L204602                   1005b786 f   monitor.obj
 0001:0005a78f       $L204603                   1005b78f f   monitor.obj
 0001:0005a798       $L204604                   1005b798 f   monitor.obj
 0001:0005a7a1       $L204605                   1005b7a1 f   monitor.obj
 0001:0005a7aa       $L204606                   1005b7aa f   monitor.obj
 0001:0005a7b3       $L204607                   1005b7b3 f   monitor.obj
 0001:0005a7bc       $L204608                   1005b7bc f   monitor.obj
 0001:0005a7c5       $L204609                   1005b7c5 f   monitor.obj
 0001:0005a7ce       $L204610                   1005b7ce f   monitor.obj
 0001:0005a7d7       $L204611                   1005b7d7 f   monitor.obj
 0001:0005a7e0       $L204612                   1005b7e0 f   monitor.obj
 0001:0005a7e9       $L204613                   1005b7e9 f   monitor.obj
 0001:0005a7f2       $L204614                   1005b7f2 f   monitor.obj
 0001:0005a7fb       $L204615                   1005b7fb f   monitor.obj
 0001:0005a804       $L204616                   1005b804 f   monitor.obj
 0001:0005a80d       $L204617                   1005b80d f   monitor.obj
 0001:0005a816       __ehhandler$?HTTPMQ@@YA_NAAVCStringList@@PAD@Z 1005b816 f   monitor.obj
 0001:0005a820       $L204866                   1005b820 f   monitor.obj
 0001:0005a829       $L204867                   1005b829 f   monitor.obj
 0001:0005a832       $L204868                   1005b832 f   monitor.obj
 0001:0005a83b       $L204869                   1005b83b f   monitor.obj
 0001:0005a844       $L204870                   1005b844 f   monitor.obj
 0001:0005a84d       $L204871                   1005b84d f   monitor.obj
 0001:0005a856       $L204872                   1005b856 f   monitor.obj
 0001:0005a85f       $L204873                   1005b85f f   monitor.obj
 0001:0005a868       $L204874                   1005b868 f   monitor.obj
 0001:0005a871       $L204875                   1005b871 f   monitor.obj
 0001:0005a87a       $L204876                   1005b87a f   monitor.obj
 0001:0005a883       $L204877                   1005b883 f   monitor.obj
 0001:0005a88c       $L204878                   1005b88c f   monitor.obj
 0001:0005a895       $L204879                   1005b895 f   monitor.obj
 0001:0005a89e       $L204881                   1005b89e f   monitor.obj
 0001:0005a8a7       $L204882                   1005b8a7 f   monitor.obj
 0001:0005a8b0       $L204883                   1005b8b0 f   monitor.obj
 0001:0005a8b9       $L204884                   1005b8b9 f   monitor.obj
 0001:0005a8c2       $L204885                   1005b8c2 f   monitor.obj
 0001:0005a8cb       $L204886                   1005b8cb f   monitor.obj
 0001:0005a8d4       $L204887                   1005b8d4 f   monitor.obj
 0001:0005a8dd       $L204888                   1005b8dd f   monitor.obj
 0001:0005a8e6       $L204889                   1005b8e6 f   monitor.obj
 0001:0005a8ef       $L204890                   1005b8ef f   monitor.obj
 0001:0005a8f8       $L204891                   1005b8f8 f   monitor.obj
 0001:0005a901       $L204892                   1005b901 f   monitor.obj
 0001:0005a90a       __ehhandler$?RLOGINMQ@@YA_NAAVCStringList@@PAD@Z 1005b90a f   monitor.obj
 0001:0005a920       $L207623                   1005b920 f   monitor.obj
 0001:0005a920       $L208395                   1005b920 f   monitor.obj
 0001:0005a920       $L209541                   1005b920 f   monitor.obj
 0001:0005a929       $L208396                   1005b929 f   monitor.obj
 0001:0005a929       $L207624                   1005b929 f   monitor.obj
 0001:0005a929       $L209542                   1005b929 f   monitor.obj
 0001:0005a932       $L208397                   1005b932 f   monitor.obj
 0001:0005a932       $L209543                   1005b932 f   monitor.obj
 0001:0005a932       $L207625                   1005b932 f   monitor.obj
 0001:0005a93b       $L208398                   1005b93b f   monitor.obj
 0001:0005a93b       $L207626                   1005b93b f   monitor.obj
 0001:0005a93b       $L209544                   1005b93b f   monitor.obj
 0001:0005a944       $L208399                   1005b944 f   monitor.obj
 0001:0005a944       $L207627                   1005b944 f   monitor.obj
 0001:0005a944       $L209545                   1005b944 f   monitor.obj
 0001:0005a94d       $L209546                   1005b94d f   monitor.obj
 0001:0005a94d       $L208400                   1005b94d f   monitor.obj
 0001:0005a94d       $L207628                   1005b94d f   monitor.obj
 0001:0005a956       $L209547                   1005b956 f   monitor.obj
 0001:0005a956       $L208401                   1005b956 f   monitor.obj
 0001:0005a956       $L207629                   1005b956 f   monitor.obj
 0001:0005a95f       $L209548                   1005b95f f   monitor.obj
 0001:0005a95f       $L207630                   1005b95f f   monitor.obj
 0001:0005a95f       $L208402                   1005b95f f   monitor.obj
 0001:0005a968       $L208403                   1005b968 f   monitor.obj
 0001:0005a968       $L209549                   1005b968 f   monitor.obj
 0001:0005a968       $L207631                   1005b968 f   monitor.obj
 0001:0005a971       $L207632                   1005b971 f   monitor.obj
 0001:0005a971       $L208404                   1005b971 f   monitor.obj
 0001:0005a971       $L209550                   1005b971 f   monitor.obj
 0001:0005a97a       $L207633                   1005b97a f   monitor.obj
 0001:0005a97a       $L208405                   1005b97a f   monitor.obj
 0001:0005a97a       $L209551                   1005b97a f   monitor.obj
 0001:0005a983       $L209552                   1005b983 f   monitor.obj
 0001:0005a983       $L207634                   1005b983 f   monitor.obj
 0001:0005a983       $L208406                   1005b983 f   monitor.obj
 0001:0005a98c       $L208407                   1005b98c f   monitor.obj
 0001:0005a98c       $L209553                   1005b98c f   monitor.obj
 0001:0005a98c       $L207635                   1005b98c f   monitor.obj
 0001:0005a995       $L209555                   1005b995 f   monitor.obj
 0001:0005a995       $L208409                   1005b995 f   monitor.obj
 0001:0005a995       $L207637                   1005b995 f   monitor.obj
 0001:0005a99e       $L209556                   1005b99e f   monitor.obj
 0001:0005a99e       $L208410                   1005b99e f   monitor.obj
 0001:0005a99e       $L207638                   1005b99e f   monitor.obj
 0001:0005a9a7       $L208411                   1005b9a7 f   monitor.obj
 0001:0005a9a7       $L209557                   1005b9a7 f   monitor.obj
 0001:0005a9a7       $L207639                   1005b9a7 f   monitor.obj
 0001:0005a9b0       $L209558                   1005b9b0 f   monitor.obj
 0001:0005a9b0       $L207640                   1005b9b0 f   monitor.obj
 0001:0005a9b0       $L208412                   1005b9b0 f   monitor.obj
 0001:0005a9b9       $L209559                   1005b9b9 f   monitor.obj
 0001:0005a9b9       $L208413                   1005b9b9 f   monitor.obj
 0001:0005a9b9       $L207641                   1005b9b9 f   monitor.obj
 0001:0005a9c2       $L209560                   1005b9c2 f   monitor.obj
 0001:0005a9c2       $L208414                   1005b9c2 f   monitor.obj
 0001:0005a9c2       $L207642                   1005b9c2 f   monitor.obj
 0001:0005a9cb       $L209561                   1005b9cb f   monitor.obj
 0001:0005a9cb       $L207643                   1005b9cb f   monitor.obj
 0001:0005a9cb       $L208415                   1005b9cb f   monitor.obj
 0001:0005a9d4       $L207644                   1005b9d4 f   monitor.obj
 0001:0005a9d4       $L208416                   1005b9d4 f   monitor.obj
 0001:0005a9d4       $L209562                   1005b9d4 f   monitor.obj
 0001:0005a9dd       $L207645                   1005b9dd f   monitor.obj
 0001:0005a9dd       $L208417                   1005b9dd f   monitor.obj
 0001:0005a9dd       $L209563                   1005b9dd f   monitor.obj
 0001:0005a9e6       $L207646                   1005b9e6 f   monitor.obj
 0001:0005a9e6       $L208418                   1005b9e6 f   monitor.obj
 0001:0005a9e6       $L209564                   1005b9e6 f   monitor.obj
 0001:0005a9ef       $L208419                   1005b9ef f   monitor.obj
 0001:0005a9ef       $L209565                   1005b9ef f   monitor.obj
 0001:0005a9ef       $L207647                   1005b9ef f   monitor.obj
 0001:0005a9f8       __ehhandler$?HP_RLOGINCPU@@YAHAAVCStringList@@PAD@Z 1005b9f8 f   monitor.obj
 0001:0005a9f8       __ehhandler$?RLOGINUNIXPERF@@YAHAAVCStringList@@PAD@Z 1005b9f8 f   monitor.obj
 0001:0005a9f8       __ehhandler$?RLOGINCPU@@YAHAAVCStringList@@PAD@Z 1005b9f8 f   monitor.obj
 0001:0005aa10       $L208736                   1005ba10 f   monitor.obj
 0001:0005aa19       $L208737                   1005ba19 f   monitor.obj
 0001:0005aa22       $L208738                   1005ba22 f   monitor.obj
 0001:0005aa2b       $L208739                   1005ba2b f   monitor.obj
 0001:0005aa34       $L208740                   1005ba34 f   monitor.obj
 0001:0005aa3d       $L208741                   1005ba3d f   monitor.obj
 0001:0005aa46       $L208742                   1005ba46 f   monitor.obj
 0001:0005aa4f       $L208743                   1005ba4f f   monitor.obj
 0001:0005aa58       $L208744                   1005ba58 f   monitor.obj
 0001:0005aa61       $L208745                   1005ba61 f   monitor.obj
 0001:0005aa6a       $L208746                   1005ba6a f   monitor.obj
 0001:0005aa73       $L208747                   1005ba73 f   monitor.obj
 0001:0005aa7c       $L208748                   1005ba7c f   monitor.obj
 0001:0005aa85       $L208749                   1005ba85 f   monitor.obj
 0001:0005aa8e       $L208751                   1005ba8e f   monitor.obj
 0001:0005aa97       $L208752                   1005ba97 f   monitor.obj
 0001:0005aaa0       $L208753                   1005baa0 f   monitor.obj
 0001:0005aaa9       $L208754                   1005baa9 f   monitor.obj
 0001:0005aab2       $L208755                   1005bab2 f   monitor.obj
 0001:0005aabb       $L208756                   1005babb f   monitor.obj
 0001:0005aac4       $L208757                   1005bac4 f   monitor.obj
 0001:0005aacd       $L208758                   1005bacd f   monitor.obj
 0001:0005aad6       $L208759                   1005bad6 f   monitor.obj
 0001:0005aadf       $L208760                   1005badf f   monitor.obj
 0001:0005aae8       $L208761                   1005bae8 f   monitor.obj
 0001:0005aaf1       $L208762                   1005baf1 f   monitor.obj
 0001:0005aafa       __ehhandler$?TELUNIXPERF@@YAHAAVCStringList@@PAD@Z 1005bafa f   monitor.obj
 0001:0005ab10       $L210497                   1005bb10 f   monitor.obj
 0001:0005ab10       $L209312                   1005bb10 f   monitor.obj
 0001:0005ab10       $L208166                   1005bb10 f   monitor.obj
 0001:0005ab10       $L207394                   1005bb10 f   monitor.obj
 0001:0005ab19       $L209313                   1005bb19 f   monitor.obj
 0001:0005ab19       $L208167                   1005bb19 f   monitor.obj
 0001:0005ab19       $L207395                   1005bb19 f   monitor.obj
 0001:0005ab19       $L210498                   1005bb19 f   monitor.obj
 0001:0005ab22       $L210499                   1005bb22 f   monitor.obj
 0001:0005ab22       $L209314                   1005bb22 f   monitor.obj
 0001:0005ab22       $L207396                   1005bb22 f   monitor.obj
 0001:0005ab22       $L208168                   1005bb22 f   monitor.obj
 0001:0005ab2b       $L208169                   1005bb2b f   monitor.obj
 0001:0005ab2b       $L209315                   1005bb2b f   monitor.obj
 0001:0005ab2b       $L210500                   1005bb2b f   monitor.obj
 0001:0005ab2b       $L207397                   1005bb2b f   monitor.obj
 0001:0005ab34       $L209316                   1005bb34 f   monitor.obj
 0001:0005ab34       $L208170                   1005bb34 f   monitor.obj
 0001:0005ab34       $L207398                   1005bb34 f   monitor.obj
 0001:0005ab34       $L210501                   1005bb34 f   monitor.obj
 0001:0005ab3d       $L209317                   1005bb3d f   monitor.obj
 0001:0005ab3d       $L208171                   1005bb3d f   monitor.obj
 0001:0005ab3d       $L207399                   1005bb3d f   monitor.obj
 0001:0005ab3d       $L210502                   1005bb3d f   monitor.obj
 0001:0005ab46       $L210503                   1005bb46 f   monitor.obj
 0001:0005ab46       $L207400                   1005bb46 f   monitor.obj
 0001:0005ab46       $L209318                   1005bb46 f   monitor.obj
 0001:0005ab46       $L208172                   1005bb46 f   monitor.obj
 0001:0005ab4f       $L209319                   1005bb4f f   monitor.obj
 0001:0005ab4f       $L210504                   1005bb4f f   monitor.obj
 0001:0005ab4f       $L207401                   1005bb4f f   monitor.obj
 0001:0005ab4f       $L208173                   1005bb4f f   monitor.obj
 0001:0005ab58       $L209320                   1005bb58 f   monitor.obj
 0001:0005ab58       $L210505                   1005bb58 f   monitor.obj
 0001:0005ab58       $L208174                   1005bb58 f   monitor.obj
 0001:0005ab58       $L207402                   1005bb58 f   monitor.obj
 0001:0005ab61       $L208175                   1005bb61 f   monitor.obj
 0001:0005ab61       $L210506                   1005bb61 f   monitor.obj
 0001:0005ab61       $L209321                   1005bb61 f   monitor.obj
 0001:0005ab61       $L207403                   1005bb61 f   monitor.obj
 0001:0005ab6a       $L209322                   1005bb6a f   monitor.obj
 0001:0005ab6a       $L208176                   1005bb6a f   monitor.obj
 0001:0005ab6a       $L207404                   1005bb6a f   monitor.obj
 0001:0005ab6a       $L210507                   1005bb6a f   monitor.obj
 0001:0005ab73       $L209323                   1005bb73 f   monitor.obj
 0001:0005ab73       $L210508                   1005bb73 f   monitor.obj
 0001:0005ab73       $L208177                   1005bb73 f   monitor.obj
 0001:0005ab73       $L207405                   1005bb73 f   monitor.obj
 0001:0005ab7c       $L210509                   1005bb7c f   monitor.obj
 0001:0005ab7c       $L207406                   1005bb7c f   monitor.obj
 0001:0005ab7c       $L208178                   1005bb7c f   monitor.obj
 0001:0005ab7c       $L209324                   1005bb7c f   monitor.obj
 0001:0005ab85       $L210510                   1005bb85 f   monitor.obj
 0001:0005ab85       $L207407                   1005bb85 f   monitor.obj
 0001:0005ab85       $L209325                   1005bb85 f   monitor.obj
 0001:0005ab85       $L208179                   1005bb85 f   monitor.obj
 0001:0005ab8e       $L207408                   1005bb8e f   monitor.obj
 0001:0005ab8e       $L209326                   1005bb8e f   monitor.obj
 0001:0005ab8e       $L210511                   1005bb8e f   monitor.obj
 0001:0005ab8e       $L208180                   1005bb8e f   monitor.obj
 0001:0005ab97       $L210512                   1005bb97 f   monitor.obj
 0001:0005ab97       $L209327                   1005bb97 f   monitor.obj
 0001:0005ab97       $L208181                   1005bb97 f   monitor.obj
 0001:0005ab97       $L207409                   1005bb97 f   monitor.obj
 0001:0005aba0       $L209328                   1005bba0 f   monitor.obj
 0001:0005aba0       $L208182                   1005bba0 f   monitor.obj
 0001:0005aba0       $L210513                   1005bba0 f   monitor.obj
 0001:0005aba0       $L207410                   1005bba0 f   monitor.obj
 0001:0005aba9       $L210514                   1005bba9 f   monitor.obj
 0001:0005aba9       $L207411                   1005bba9 f   monitor.obj
 0001:0005aba9       $L208183                   1005bba9 f   monitor.obj
 0001:0005aba9       $L209329                   1005bba9 f   monitor.obj
 0001:0005abb2       $L210515                   1005bbb2 f   monitor.obj
 0001:0005abb2       $L209330                   1005bbb2 f   monitor.obj
 0001:0005abb2       $L208184                   1005bbb2 f   monitor.obj
 0001:0005abb2       $L207412                   1005bbb2 f   monitor.obj
 0001:0005abbb       $L210516                   1005bbbb f   monitor.obj
 0001:0005abbb       $L209331                   1005bbbb f   monitor.obj
 0001:0005abbb       $L207413                   1005bbbb f   monitor.obj
 0001:0005abbb       $L208185                   1005bbbb f   monitor.obj
 0001:0005abc4       __ehhandler$?HP_HTTPCPU@@YAHAAVCStringList@@PAD@Z 1005bbc4 f   monitor.obj
 0001:0005abc4       __ehhandler$?HTTPMEMORY@@YAHAAVCStringList@@PADH@Z 1005bbc4 f   monitor.obj
 0001:0005abc4       __ehhandler$?HTTPUNIXPERF@@YAHAAVCStringList@@PAD@Z 1005bbc4 f   monitor.obj
 0001:0005abc4       __ehhandler$?HTTPCPU@@YAHAAVCStringList@@PAD@Z 1005bbc4 f   monitor.obj
 0001:0005abd0       $L209102                   1005bbd0 f   monitor.obj
 0001:0005abd0       $L210287                   1005bbd0 f   monitor.obj
 0001:0005abd0       $L207956                   1005bbd0 f   monitor.obj
 0001:0005abd0       $L216243                   1005bbd0 f   monitor.obj
 0001:0005abd0       $L207184                   1005bbd0 f   monitor.obj
 0001:0005abd9       $L207957                   1005bbd9 f   monitor.obj
 0001:0005abd9       $L210288                   1005bbd9 f   monitor.obj
 0001:0005abd9       $L209103                   1005bbd9 f   monitor.obj
 0001:0005abd9       $L216244                   1005bbd9 f   monitor.obj
 0001:0005abd9       $L207185                   1005bbd9 f   monitor.obj
 0001:0005abe2       $L209104                   1005bbe2 f   monitor.obj
 0001:0005abe2       $L207186                   1005bbe2 f   monitor.obj
 0001:0005abe2       $L210289                   1005bbe2 f   monitor.obj
 0001:0005abe2       $L216245                   1005bbe2 f   monitor.obj
 0001:0005abe2       $L207958                   1005bbe2 f   monitor.obj
 0001:0005abeb       $L216246                   1005bbeb f   monitor.obj
 0001:0005abeb       $L210290                   1005bbeb f   monitor.obj
 0001:0005abeb       $L207959                   1005bbeb f   monitor.obj
 0001:0005abeb       $L209105                   1005bbeb f   monitor.obj
 0001:0005abeb       $L207187                   1005bbeb f   monitor.obj
 0001:0005abf4       $L210291                   1005bbf4 f   monitor.obj
 0001:0005abf4       $L209106                   1005bbf4 f   monitor.obj
 0001:0005abf4       $L216247                   1005bbf4 f   monitor.obj
 0001:0005abf4       $L207188                   1005bbf4 f   monitor.obj
 0001:0005abf4       $L207960                   1005bbf4 f   monitor.obj
 0001:0005abfd       $L216248                   1005bbfd f   monitor.obj
 0001:0005abfd       $L210292                   1005bbfd f   monitor.obj
 0001:0005abfd       $L207189                   1005bbfd f   monitor.obj
 0001:0005abfd       $L207961                   1005bbfd f   monitor.obj
 0001:0005abfd       $L209107                   1005bbfd f   monitor.obj
 0001:0005ac06       $L207962                   1005bc06 f   monitor.obj
 0001:0005ac06       $L209108                   1005bc06 f   monitor.obj
 0001:0005ac06       $L210293                   1005bc06 f   monitor.obj
 0001:0005ac06       $L216249                   1005bc06 f   monitor.obj
 0001:0005ac06       $L207190                   1005bc06 f   monitor.obj
 0001:0005ac0f       $L210294                   1005bc0f f   monitor.obj
 0001:0005ac0f       $L207191                   1005bc0f f   monitor.obj
 0001:0005ac0f       $L209109                   1005bc0f f   monitor.obj
 0001:0005ac0f       $L216250                   1005bc0f f   monitor.obj
 0001:0005ac0f       $L207963                   1005bc0f f   monitor.obj
 0001:0005ac18       $L210295                   1005bc18 f   monitor.obj
 0001:0005ac18       $L207192                   1005bc18 f   monitor.obj
 0001:0005ac18       $L216251                   1005bc18 f   monitor.obj
 0001:0005ac18       $L209110                   1005bc18 f   monitor.obj
 0001:0005ac18       $L207964                   1005bc18 f   monitor.obj
 0001:0005ac21       $L210297                   1005bc21 f   monitor.obj
 0001:0005ac21       $L209112                   1005bc21 f   monitor.obj
 0001:0005ac21       $L216253                   1005bc21 f   monitor.obj
 0001:0005ac21       $L207194                   1005bc21 f   monitor.obj
 0001:0005ac21       $L207966                   1005bc21 f   monitor.obj
 0001:0005ac2a       $L210298                   1005bc2a f   monitor.obj
 0001:0005ac2a       $L209113                   1005bc2a f   monitor.obj
 0001:0005ac2a       $L207195                   1005bc2a f   monitor.obj
 0001:0005ac2a       $L207967                   1005bc2a f   monitor.obj
 0001:0005ac2a       $L216254                   1005bc2a f   monitor.obj
 0001:0005ac33       $L207196                   1005bc33 f   monitor.obj
 0001:0005ac33       $L209114                   1005bc33 f   monitor.obj
 0001:0005ac33       $L210299                   1005bc33 f   monitor.obj
 0001:0005ac33       $L216255                   1005bc33 f   monitor.obj
 0001:0005ac33       $L207968                   1005bc33 f   monitor.obj
 0001:0005ac3c       $L209115                   1005bc3c f   monitor.obj
 0001:0005ac3c       $L207969                   1005bc3c f   monitor.obj
 0001:0005ac3c       $L216256                   1005bc3c f   monitor.obj
 0001:0005ac3c       $L210300                   1005bc3c f   monitor.obj
 0001:0005ac3c       $L207197                   1005bc3c f   monitor.obj
 0001:0005ac45       $L207198                   1005bc45 f   monitor.obj
 0001:0005ac45       $L210301                   1005bc45 f   monitor.obj
 0001:0005ac45       $L209116                   1005bc45 f   monitor.obj
 0001:0005ac45       $L207970                   1005bc45 f   monitor.obj
 0001:0005ac45       $L216257                   1005bc45 f   monitor.obj
 0001:0005ac4e       $L210302                   1005bc4e f   monitor.obj
 0001:0005ac4e       $L207199                   1005bc4e f   monitor.obj
 0001:0005ac4e       $L209117                   1005bc4e f   monitor.obj
 0001:0005ac4e       $L207971                   1005bc4e f   monitor.obj
 0001:0005ac4e       $L216258                   1005bc4e f   monitor.obj
 0001:0005ac57       __ehhandler$?SSHSERVICES@@YAHAAVCStringList@@PADH@Z 1005bc57 f   monitor.obj
 0001:0005ac57       __ehhandler$?HP_SSHCPU@@YAHAAVCStringList@@PAD@Z 1005bc57 f   monitor.obj
 0001:0005ac57       __ehhandler$?SSHUNIXPERF@@YAHAAVCStringList@@PAD@Z 1005bc57 f   monitor.obj
 0001:0005ac57       __ehhandler$?SSHCPU@@YAHAAVCStringList@@PAD@Z 1005bc57 f   monitor.obj
 0001:0005ac57       __ehhandler$?SSHMEMORY@@YAHAAVCStringList@@PADH@Z 1005bc57 f   monitor.obj
 0001:0005ac70       $L210726                   1005bc70 f   monitor.obj
 0001:0005ac79       $L210727                   1005bc79 f   monitor.obj
 0001:0005ac82       $L210728                   1005bc82 f   monitor.obj
 0001:0005ac8b       $L210729                   1005bc8b f   monitor.obj
 0001:0005ac94       $L210730                   1005bc94 f   monitor.obj
 0001:0005ac9d       $L210731                   1005bc9d f   monitor.obj
 0001:0005aca6       $L210732                   1005bca6 f   monitor.obj
 0001:0005acaf       $L210733                   1005bcaf f   monitor.obj
 0001:0005acb8       $L210734                   1005bcb8 f   monitor.obj
 0001:0005acc1       $L210735                   1005bcc1 f   monitor.obj
 0001:0005acca       $L210736                   1005bcca f   monitor.obj
 0001:0005acd3       $L210737                   1005bcd3 f   monitor.obj
 0001:0005acdc       $L210738                   1005bcdc f   monitor.obj
 0001:0005ace5       $L210739                   1005bce5 f   monitor.obj
 0001:0005acee       $L210741                   1005bcee f   monitor.obj
 0001:0005acf7       $L210742                   1005bcf7 f   monitor.obj
 0001:0005ad00       $L210743                   1005bd00 f   monitor.obj
 0001:0005ad09       $L210744                   1005bd09 f   monitor.obj
 0001:0005ad12       $L210745                   1005bd12 f   monitor.obj
 0001:0005ad1b       $L210746                   1005bd1b f   monitor.obj
 0001:0005ad24       $L210747                   1005bd24 f   monitor.obj
 0001:0005ad2d       $L210748                   1005bd2d f   monitor.obj
 0001:0005ad36       $L210749                   1005bd36 f   monitor.obj
 0001:0005ad3f       $L210750                   1005bd3f f   monitor.obj
 0001:0005ad48       $L210751                   1005bd48 f   monitor.obj
 0001:0005ad51       __ehhandler$?RLOGINMEMORY@@YAHAAVCStringList@@PADH@Z 1005bd51 f   monitor.obj
 0001:0005ad60       $L211060                   1005bd60 f   monitor.obj
 0001:0005ad69       $L211061                   1005bd69 f   monitor.obj
 0001:0005ad72       $L211062                   1005bd72 f   monitor.obj
 0001:0005ad7b       $L211063                   1005bd7b f   monitor.obj
 0001:0005ad84       $L211064                   1005bd84 f   monitor.obj
 0001:0005ad8d       $L211065                   1005bd8d f   monitor.obj
 0001:0005ad96       $L211066                   1005bd96 f   monitor.obj
 0001:0005ad9f       $L211067                   1005bd9f f   monitor.obj
 0001:0005ada8       $L211068                   1005bda8 f   monitor.obj
 0001:0005adb1       $L211069                   1005bdb1 f   monitor.obj
 0001:0005adba       $L211071                   1005bdba f   monitor.obj
 0001:0005adc3       $L211072                   1005bdc3 f   monitor.obj
 0001:0005adcc       $L211073                   1005bdcc f   monitor.obj
 0001:0005add5       $L211074                   1005bdd5 f   monitor.obj
 0001:0005adde       $L211075                   1005bdde f   monitor.obj
 0001:0005ade7       $L211076                   1005bde7 f   monitor.obj
 0001:0005adf0       $L211077                   1005bdf0 f   monitor.obj
 0001:0005adf9       __ehhandler$?SSHDISK@@YA_NAAVCStringList@@PAD@Z 1005bdf9 f   monitor.obj
 0001:0005ae10       $L211935                   1005be10 f   monitor.obj
 0001:0005ae19       $L211936                   1005be19 f   monitor.obj
 0001:0005ae22       $L211937                   1005be22 f   monitor.obj
 0001:0005ae2b       $L211938                   1005be2b f   monitor.obj
 0001:0005ae34       $L211939                   1005be34 f   monitor.obj
 0001:0005ae3d       $L211940                   1005be3d f   monitor.obj
 0001:0005ae46       $L211941                   1005be46 f   monitor.obj
 0001:0005ae4f       $L211942                   1005be4f f   monitor.obj
 0001:0005ae58       $L211943                   1005be58 f   monitor.obj
 0001:0005ae61       $L211944                   1005be61 f   monitor.obj
 0001:0005ae6a       $L211946                   1005be6a f   monitor.obj
 0001:0005ae73       $L211947                   1005be73 f   monitor.obj
 0001:0005ae7c       $L211948                   1005be7c f   monitor.obj
 0001:0005ae85       $L211949                   1005be85 f   monitor.obj
 0001:0005ae8e       $L211950                   1005be8e f   monitor.obj
 0001:0005ae97       $L211951                   1005be97 f   monitor.obj
 0001:0005aea0       $L211952                   1005bea0 f   monitor.obj
 0001:0005aea9       __ehhandler$?SSHSERVICE@@YA_NAAVCStringList@@PAD@Z 1005bea9 f   monitor.obj
 0001:0005aec0       $L213286                   1005bec0 f   monitor.obj
 0001:0005aec9       $L213287                   1005bec9 f   monitor.obj
 0001:0005aed2       $L213288                   1005bed2 f   monitor.obj
 0001:0005aedb       $L213289                   1005bedb f   monitor.obj
 0001:0005aee4       $L213290                   1005bee4 f   monitor.obj
 0001:0005aeed       $L213291                   1005beed f   monitor.obj
 0001:0005aef6       $L213292                   1005bef6 f   monitor.obj
 0001:0005aeff       $L213293                   1005beff f   monitor.obj
 0001:0005af08       $L213294                   1005bf08 f   monitor.obj
 0001:0005af11       $L213295                   1005bf11 f   monitor.obj
 0001:0005af1a       $L213296                   1005bf1a f   monitor.obj
 0001:0005af23       $L213298                   1005bf23 f   monitor.obj
 0001:0005af2c       $L213299                   1005bf2c f   monitor.obj
 0001:0005af35       $L213300                   1005bf35 f   monitor.obj
 0001:0005af3e       $L213301                   1005bf3e f   monitor.obj
 0001:0005af47       $L213302                   1005bf47 f   monitor.obj
 0001:0005af50       $L213303                   1005bf50 f   monitor.obj
 0001:0005af59       $L213304                   1005bf59 f   monitor.obj
 0001:0005af62       $L213305                   1005bf62 f   monitor.obj
 0001:0005af6b       __ehhandler$?SSHSCRIPT@@YAHAAVCStringList@@PAD@Z 1005bf6b f   monitor.obj
 0001:0005af80       $L213557                   1005bf80 f   monitor.obj
 0001:0005af89       $L213558                   1005bf89 f   monitor.obj
 0001:0005af92       $L213559                   1005bf92 f   monitor.obj
 0001:0005af9b       $L213560                   1005bf9b f   monitor.obj
 0001:0005afa4       $L213561                   1005bfa4 f   monitor.obj
 0001:0005afad       $L213562                   1005bfad f   monitor.obj
 0001:0005afb6       $L213563                   1005bfb6 f   monitor.obj
 0001:0005afbf       $L213564                   1005bfbf f   monitor.obj
 0001:0005afc8       $L213565                   1005bfc8 f   monitor.obj
 0001:0005afd1       $L213566                   1005bfd1 f   monitor.obj
 0001:0005afda       $L213567                   1005bfda f   monitor.obj
 0001:0005afe3       $L213568                   1005bfe3 f   monitor.obj
 0001:0005afec       $L213569                   1005bfec f   monitor.obj
 0001:0005aff5       $L213570                   1005bff5 f   monitor.obj
 0001:0005affe       $L213571                   1005bffe f   monitor.obj
 0001:0005b007       $L213572                   1005c007 f   monitor.obj
 0001:0005b010       $L213573                   1005c010 f   monitor.obj
 0001:0005b019       $L213574                   1005c019 f   monitor.obj
 0001:0005b022       $L213575                   1005c022 f   monitor.obj
 0001:0005b02b       $L213576                   1005c02b f   monitor.obj
 0001:0005b034       $L213577                   1005c034 f   monitor.obj
 0001:0005b03d       $L213578                   1005c03d f   monitor.obj
 0001:0005b046       $L213579                   1005c046 f   monitor.obj
 0001:0005b04f       $L213580                   1005c04f f   monitor.obj
 0001:0005b058       $L213581                   1005c058 f   monitor.obj
 0001:0005b061       $L213582                   1005c061 f   monitor.obj
 0001:0005b06a       __ehhandler$?HTTPSCRIPT@@YAHAAVCStringList@@PAD@Z 1005c06a f   monitor.obj
 0001:0005b080       $L213869                   1005c080 f   monitor.obj
 0001:0005b089       $L213870                   1005c089 f   monitor.obj
 0001:0005b092       $L213871                   1005c092 f   monitor.obj
 0001:0005b09b       $L213872                   1005c09b f   monitor.obj
 0001:0005b0a7       $L213873                   1005c0a7 f   monitor.obj
 0001:0005b0b0       $L213874                   1005c0b0 f   monitor.obj
 0001:0005b0b9       $L213875                   1005c0b9 f   monitor.obj
 0001:0005b0c2       $L213876                   1005c0c2 f   monitor.obj
 0001:0005b0cb       $L213877                   1005c0cb f   monitor.obj
 0001:0005b0d4       $L213878                   1005c0d4 f   monitor.obj
 0001:0005b0dd       $L213879                   1005c0dd f   monitor.obj
 0001:0005b0e6       $L213880                   1005c0e6 f   monitor.obj
 0001:0005b0ef       $L213881                   1005c0ef f   monitor.obj
 0001:0005b0fb       $L213882                   1005c0fb f   monitor.obj
 0001:0005b107       $L213883                   1005c107 f   monitor.obj
 0001:0005b113       $L213884                   1005c113 f   monitor.obj
 0001:0005b11c       $L213886                   1005c11c f   monitor.obj
 0001:0005b125       $L213887                   1005c125 f   monitor.obj
 0001:0005b12e       $L213888                   1005c12e f   monitor.obj
 0001:0005b137       $L213889                   1005c137 f   monitor.obj
 0001:0005b140       $L213890                   1005c140 f   monitor.obj
 0001:0005b149       $L213891                   1005c149 f   monitor.obj
 0001:0005b152       $L213892                   1005c152 f   monitor.obj
 0001:0005b15b       $L213893                   1005c15b f   monitor.obj
 0001:0005b164       $L213894                   1005c164 f   monitor.obj
 0001:0005b16d       $L213895                   1005c16d f   monitor.obj
 0001:0005b176       $L213896                   1005c176 f   monitor.obj
 0001:0005b17f       $L213897                   1005c17f f   monitor.obj
 0001:0005b188       $L213898                   1005c188 f   monitor.obj
 0001:0005b191       $L213899                   1005c191 f   monitor.obj
 0001:0005b19a       __ehhandler$?RLOGINSCRIPT@@YAHAAVCStringList@@PAD@Z 1005c19a f   monitor.obj
 0001:0005b1b0       $L214339                   1005c1b0 f   monitor.obj
 0001:0005b1b9       $L214340                   1005c1b9 f   monitor.obj
 0001:0005b1c2       $L214341                   1005c1c2 f   monitor.obj
 0001:0005b1cb       $L214342                   1005c1cb f   monitor.obj
 0001:0005b1d4       $L214343                   1005c1d4 f   monitor.obj
 0001:0005b1dd       $L214344                   1005c1dd f   monitor.obj
 0001:0005b1e6       $L214345                   1005c1e6 f   monitor.obj
 0001:0005b1ef       $L214346                   1005c1ef f   monitor.obj
 0001:0005b1f8       $L214347                   1005c1f8 f   monitor.obj
 0001:0005b201       $L214348                   1005c201 f   monitor.obj
 0001:0005b20a       $L214349                   1005c20a f   monitor.obj
 0001:0005b213       $L214350                   1005c213 f   monitor.obj
 0001:0005b21f       $L214351                   1005c21f f   monitor.obj
 0001:0005b22b       $L214352                   1005c22b f   monitor.obj
 0001:0005b234       $L214354                   1005c234 f   monitor.obj
 0001:0005b23d       $L214355                   1005c23d f   monitor.obj
 0001:0005b246       $L214356                   1005c246 f   monitor.obj
 0001:0005b24f       $L214357                   1005c24f f   monitor.obj
 0001:0005b258       $L214358                   1005c258 f   monitor.obj
 0001:0005b261       $L214359                   1005c261 f   monitor.obj
 0001:0005b26a       $L214360                   1005c26a f   monitor.obj
 0001:0005b273       $L214361                   1005c273 f   monitor.obj
 0001:0005b27c       $L214362                   1005c27c f   monitor.obj
 0001:0005b285       $L214363                   1005c285 f   monitor.obj
 0001:0005b28e       $L214364                   1005c28e f   monitor.obj
 0001:0005b297       $L214365                   1005c297 f   monitor.obj
 0001:0005b2a0       $L214370                   1005c2a0 f   monitor.obj
 0001:0005b2a9       $L214371                   1005c2a9 f   monitor.obj
 0001:0005b2b2       $L214372                   1005c2b2 f   monitor.obj
 0001:0005b2bb       __ehhandler$?TELSCRIPTS@@YAHAAVCStringList@@PAD@Z 1005c2bb f   monitor.obj
 0001:0005b2d0       $L214744                   1005c2d0 f   monitor.obj
 0001:0005b2d9       $L214745                   1005c2d9 f   monitor.obj
 0001:0005b2e2       $L214746                   1005c2e2 f   monitor.obj
 0001:0005b2eb       $L214747                   1005c2eb f   monitor.obj
 0001:0005b2f4       $L214748                   1005c2f4 f   monitor.obj
 0001:0005b2fd       $L214749                   1005c2fd f   monitor.obj
 0001:0005b306       $L214750                   1005c306 f   monitor.obj
 0001:0005b30f       $L214751                   1005c30f f   monitor.obj
 0001:0005b318       $L214753                   1005c318 f   monitor.obj
 0001:0005b321       $L214754                   1005c321 f   monitor.obj
 0001:0005b32a       $L214755                   1005c32a f   monitor.obj
 0001:0005b333       $L214756                   1005c333 f   monitor.obj
 0001:0005b33c       $L214757                   1005c33c f   monitor.obj
 0001:0005b345       $L214761                   1005c345 f   monitor.obj
 0001:0005b34e       __ehhandler$?SSHSCRIPTS@@YAHAAVCStringList@@PAD@Z 1005c34e f   monitor.obj
 0001:0005b360       $L214970                   1005c360 f   monitor.obj
 0001:0005b36c       $L214971                   1005c36c f   monitor.obj
 0001:0005b378       $L214972                   1005c378 f   monitor.obj
 0001:0005b384       $L214973                   1005c384 f   monitor.obj
 0001:0005b390       $L214974                   1005c390 f   monitor.obj
 0001:0005b39c       $L214975                   1005c39c f   monitor.obj
 0001:0005b3a8       $L214976                   1005c3a8 f   monitor.obj
 0001:0005b3b4       $L214977                   1005c3b4 f   monitor.obj
 0001:0005b3c0       $L214978                   1005c3c0 f   monitor.obj
 0001:0005b3cc       $L214979                   1005c3cc f   monitor.obj
 0001:0005b3d8       $L214980                   1005c3d8 f   monitor.obj
 0001:0005b3e4       $L214981                   1005c3e4 f   monitor.obj
 0001:0005b3f0       $L214982                   1005c3f0 f   monitor.obj
 0001:0005b3fc       $L214983                   1005c3fc f   monitor.obj
 0001:0005b408       $L214984                   1005c408 f   monitor.obj
 0001:0005b414       $L214985                   1005c414 f   monitor.obj
 0001:0005b420       $L214986                   1005c420 f   monitor.obj
 0001:0005b42c       $L214987                   1005c42c f   monitor.obj
 0001:0005b438       $L214988                   1005c438 f   monitor.obj
 0001:0005b444       $L214989                   1005c444 f   monitor.obj
 0001:0005b450       $L214990                   1005c450 f   monitor.obj
 0001:0005b45c       $L214991                   1005c45c f   monitor.obj
 0001:0005b468       $L214992                   1005c468 f   monitor.obj
 0001:0005b474       $L214993                   1005c474 f   monitor.obj
 0001:0005b480       __ehhandler$?HTTPSCRIPTS@@YAHAAVCStringList@@00@Z 1005c480 f   monitor.obj
 0001:0005b490       $L215241                   1005c490 f   monitor.obj
 0001:0005b49c       $L215242                   1005c49c f   monitor.obj
 0001:0005b4a8       $L215243                   1005c4a8 f   monitor.obj
 0001:0005b4b4       $L215244                   1005c4b4 f   monitor.obj
 0001:0005b4c0       $L215245                   1005c4c0 f   monitor.obj
 0001:0005b4cc       $L215246                   1005c4cc f   monitor.obj
 0001:0005b4d8       $L215247                   1005c4d8 f   monitor.obj
 0001:0005b4e4       $L215248                   1005c4e4 f   monitor.obj
 0001:0005b4f0       $L215249                   1005c4f0 f   monitor.obj
 0001:0005b4fc       $L215250                   1005c4fc f   monitor.obj
 0001:0005b508       $L215251                   1005c508 f   monitor.obj
 0001:0005b514       $L215252                   1005c514 f   monitor.obj
 0001:0005b520       $L215253                   1005c520 f   monitor.obj
 0001:0005b52c       $L215255                   1005c52c f   monitor.obj
 0001:0005b538       $L215256                   1005c538 f   monitor.obj
 0001:0005b544       $L215257                   1005c544 f   monitor.obj
 0001:0005b550       $L215258                   1005c550 f   monitor.obj
 0001:0005b55c       $L215259                   1005c55c f   monitor.obj
 0001:0005b568       $L215260                   1005c568 f   monitor.obj
 0001:0005b574       $L215261                   1005c574 f   monitor.obj
 0001:0005b580       $L215262                   1005c580 f   monitor.obj
 0001:0005b58c       $L215263                   1005c58c f   monitor.obj
 0001:0005b598       $L215264                   1005c598 f   monitor.obj
 0001:0005b5a4       $L215265                   1005c5a4 f   monitor.obj
 0001:0005b5b0       $L215266                   1005c5b0 f   monitor.obj
 0001:0005b5bc       $L215267                   1005c5bc f   monitor.obj
 0001:0005b5c8       $L215268                   1005c5c8 f   monitor.obj
 0001:0005b5d4       $L215269                   1005c5d4 f   monitor.obj
 0001:0005b5e0       __ehhandler$?RLOGINSCRIPTS@@YAHAAVCStringList@@00@Z 1005c5e0 f   monitor.obj
 0001:0005b5f0       $L216448                   1005c5f0 f   monitor.obj
 0001:0005b5fc       $L216449                   1005c5fc f   monitor.obj
 0001:0005b608       $L216450                   1005c608 f   monitor.obj
 0001:0005b614       $L216451                   1005c614 f   monitor.obj
 0001:0005b620       $L216452                   1005c620 f   monitor.obj
 0001:0005b62c       $L216453                   1005c62c f   monitor.obj
 0001:0005b638       $L216454                   1005c638 f   monitor.obj
 0001:0005b644       $L216455                   1005c644 f   monitor.obj
 0001:0005b650       $L216456                   1005c650 f   monitor.obj
 0001:0005b65c       $L216457                   1005c65c f   monitor.obj
 0001:0005b668       $L216458                   1005c668 f   monitor.obj
 0001:0005b674       $L216459                   1005c674 f   monitor.obj
 0001:0005b680       $L216460                   1005c680 f   monitor.obj
 0001:0005b68c       $L216461                   1005c68c f   monitor.obj
 0001:0005b698       $L216462                   1005c698 f   monitor.obj
 0001:0005b6a4       $L216463                   1005c6a4 f   monitor.obj
 0001:0005b6b0       $L216464                   1005c6b0 f   monitor.obj
 0001:0005b6bc       $L216465                   1005c6bc f   monitor.obj
 0001:0005b6c8       $L216466                   1005c6c8 f   monitor.obj
 0001:0005b6d4       $L216467                   1005c6d4 f   monitor.obj
 0001:0005b6e0       __ehhandler$?HTTPSERVICES@@YAHAAVCStringList@@00@Z 1005c6e0 f   monitor.obj
 0001:0005b6f0       $L216681                   1005c6f0 f   monitor.obj
 0001:0005b6fc       $L216682                   1005c6fc f   monitor.obj
 0001:0005b708       $L216683                   1005c708 f   monitor.obj
 0001:0005b714       $L216684                   1005c714 f   monitor.obj
 0001:0005b720       $L216685                   1005c720 f   monitor.obj
 0001:0005b72c       $L216686                   1005c72c f   monitor.obj
 0001:0005b738       $L216687                   1005c738 f   monitor.obj
 0001:0005b744       $L216688                   1005c744 f   monitor.obj
 0001:0005b750       $L216689                   1005c750 f   monitor.obj
 0001:0005b75c       $L216690                   1005c75c f   monitor.obj
 0001:0005b768       $L216691                   1005c768 f   monitor.obj
 0001:0005b774       $L216692                   1005c774 f   monitor.obj
 0001:0005b780       $L216693                   1005c780 f   monitor.obj
 0001:0005b78c       $L216694                   1005c78c f   monitor.obj
 0001:0005b798       $L216696                   1005c798 f   monitor.obj
 0001:0005b7a4       $L216697                   1005c7a4 f   monitor.obj
 0001:0005b7b0       $L216698                   1005c7b0 f   monitor.obj
 0001:0005b7bc       $L216699                   1005c7bc f   monitor.obj
 0001:0005b7c8       $L216700                   1005c7c8 f   monitor.obj
 0001:0005b7d4       $L216701                   1005c7d4 f   monitor.obj
 0001:0005b7e0       $L216702                   1005c7e0 f   monitor.obj
 0001:0005b7ec       $L216703                   1005c7ec f   monitor.obj
 0001:0005b7f8       $L216704                   1005c7f8 f   monitor.obj
 0001:0005b804       $L216705                   1005c804 f   monitor.obj
 0001:0005b810       $L216706                   1005c810 f   monitor.obj
 0001:0005b81c       __ehhandler$?RLOGINSERVICES@@YAHAAVCStringList@@00@Z 1005c81c f   monitor.obj
 0001:0005b830       $L212837                   1005c830 f   monitor.obj
 0001:0005b830       $L219708                   1005c830 f   monitor.obj
 0001:0005b839       $L219709                   1005c839 f   monitor.obj
 0001:0005b839       $L212838                   1005c839 f   monitor.obj
 0001:0005b842       $L219710                   1005c842 f   monitor.obj
 0001:0005b842       $L212839                   1005c842 f   monitor.obj
 0001:0005b84b       $L212840                   1005c84b f   monitor.obj
 0001:0005b84b       $L219711                   1005c84b f   monitor.obj
 0001:0005b857       $L212841                   1005c857 f   monitor.obj
 0001:0005b857       $L219712                   1005c857 f   monitor.obj
 0001:0005b863       $L219713                   1005c863 f   monitor.obj
 0001:0005b863       $L212842                   1005c863 f   monitor.obj
 0001:0005b86c       $L212843                   1005c86c f   monitor.obj
 0001:0005b86c       $L219714                   1005c86c f   monitor.obj
 0001:0005b875       $L212844                   1005c875 f   monitor.obj
 0001:0005b875       $L219715                   1005c875 f   monitor.obj
 0001:0005b881       $L219716                   1005c881 f   monitor.obj
 0001:0005b881       $L212845                   1005c881 f   monitor.obj
 0001:0005b88a       $L212846                   1005c88a f   monitor.obj
 0001:0005b88a       $L219717                   1005c88a f   monitor.obj
 0001:0005b893       $L212847                   1005c893 f   monitor.obj
 0001:0005b893       $L219718                   1005c893 f   monitor.obj
 0001:0005b89c       $L219719                   1005c89c f   monitor.obj
 0001:0005b89c       $L212848                   1005c89c f   monitor.obj
 0001:0005b8a5       $L219720                   1005c8a5 f   monitor.obj
 0001:0005b8a5       $L212849                   1005c8a5 f   monitor.obj
 0001:0005b8ae       $L219721                   1005c8ae f   monitor.obj
 0001:0005b8ae       $L212850                   1005c8ae f   monitor.obj
 0001:0005b8b7       $L212851                   1005c8b7 f   monitor.obj
 0001:0005b8b7       $L219722                   1005c8b7 f   monitor.obj
 0001:0005b8c3       $L219723                   1005c8c3 f   monitor.obj
 0001:0005b8c3       $L212852                   1005c8c3 f   monitor.obj
 0001:0005b8cf       $L212853                   1005c8cf f   monitor.obj
 0001:0005b8cf       $L219724                   1005c8cf f   monitor.obj
 0001:0005b8d8       $L219726                   1005c8d8 f   monitor.obj
 0001:0005b8d8       $L212855                   1005c8d8 f   monitor.obj
 0001:0005b8e1       $L212856                   1005c8e1 f   monitor.obj
 0001:0005b8e1       $L219727                   1005c8e1 f   monitor.obj
 0001:0005b8ea       $L219728                   1005c8ea f   monitor.obj
 0001:0005b8ea       $L212857                   1005c8ea f   monitor.obj
 0001:0005b8f3       $L219729                   1005c8f3 f   monitor.obj
 0001:0005b8f3       $L212858                   1005c8f3 f   monitor.obj
 0001:0005b8fc       $L212859                   1005c8fc f   monitor.obj
 0001:0005b8fc       $L219730                   1005c8fc f   monitor.obj
 0001:0005b905       $L219731                   1005c905 f   monitor.obj
 0001:0005b905       $L212860                   1005c905 f   monitor.obj
 0001:0005b90e       $L212861                   1005c90e f   monitor.obj
 0001:0005b90e       $L219732                   1005c90e f   monitor.obj
 0001:0005b917       $L219733                   1005c917 f   monitor.obj
 0001:0005b917       $L212862                   1005c917 f   monitor.obj
 0001:0005b920       $L212863                   1005c920 f   monitor.obj
 0001:0005b920       $L219734                   1005c920 f   monitor.obj
 0001:0005b929       $L212864                   1005c929 f   monitor.obj
 0001:0005b929       $L219735                   1005c929 f   monitor.obj
 0001:0005b932       $L212865                   1005c932 f   monitor.obj
 0001:0005b932       $L219736                   1005c932 f   monitor.obj
 0001:0005b93b       $L212866                   1005c93b f   monitor.obj
 0001:0005b93b       $L219737                   1005c93b f   monitor.obj
 0001:0005b944       $L212867                   1005c944 f   monitor.obj
 0001:0005b944       $L219738                   1005c944 f   monitor.obj
 0001:0005b94d       $L212868                   1005c94d f   monitor.obj
 0001:0005b94d       $L219739                   1005c94d f   monitor.obj
 0001:0005b959       $L212869                   1005c959 f   monitor.obj
 0001:0005b959       $L219740                   1005c959 f   monitor.obj
 0001:0005b962       __ehhandler$?TELSCRIPT@@YAHAAVCStringList@@PAD@Z 1005c962 f   monitor.obj
 0001:0005b962       __ehhandler$?TELSCRIPT2@@YAHAAVCStringList@@PAD@Z 1005c962 f   monitor.obj
 0001:0005b970       $L220641                   1005c970 f   monitor.obj
 0001:0005b979       __ehhandler$??HATL@@YA?AV?$CStringT@DV?$StrTraitMFC_DLL@DV?$ChTraitsCRT@D@ATL@@@@@0@ABV10@PBD@Z 1005c979 f   monitor.obj
 0001:0005b990       $L221108                   1005c990 f   monitor.obj
 0001:0005b999       __ehhandler$?WriteLogFile@@YAXPBD@Z 1005c999 f   monitor.obj
 0001:0005b9b0       $L221152                   1005c9b0 f   monitor.obj
 0001:0005b9b9       $L221153                   1005c9b9 f   monitor.obj
 0001:0005b9c2       $L221154                   1005c9c2 f   monitor.obj
 0001:0005b9cb       $L221155                   1005c9cb f   monitor.obj
 0001:0005b9d7       $L221156                   1005c9d7 f   monitor.obj
 0001:0005b9e0       $L221157                   1005c9e0 f   monitor.obj
 0001:0005b9e9       $L221158                   1005c9e9 f   monitor.obj
 0001:0005b9f2       $L221159                   1005c9f2 f   monitor.obj
 0001:0005b9fb       $L221160                   1005c9fb f   monitor.obj
 0001:0005ba04       $L221161                   1005ca04 f   monitor.obj
 0001:0005ba0d       $L221162                   1005ca0d f   monitor.obj
 0001:0005ba16       $L221163                   1005ca16 f   monitor.obj
 0001:0005ba22       $L221164                   1005ca22 f   monitor.obj
 0001:0005ba2e       $L221165                   1005ca2e f   monitor.obj
 0001:0005ba3a       $L221166                   1005ca3a f   monitor.obj
 0001:0005ba43       $L221168                   1005ca43 f   monitor.obj
 0001:0005ba4c       $L221169                   1005ca4c f   monitor.obj
 0001:0005ba55       $L221170                   1005ca55 f   monitor.obj
 0001:0005ba5e       $L221171                   1005ca5e f   monitor.obj
 0001:0005ba67       $L221172                   1005ca67 f   monitor.obj
 0001:0005ba70       $L221173                   1005ca70 f   monitor.obj
 0001:0005ba79       $L221174                   1005ca79 f   monitor.obj
 0001:0005ba82       $L221175                   1005ca82 f   monitor.obj
 0001:0005ba8b       $L221176                   1005ca8b f   monitor.obj
 0001:0005ba94       $L221177                   1005ca94 f   monitor.obj
 0001:0005ba9d       $L221179                   1005ca9d f   monitor.obj
 0001:0005baa6       $L221180                   1005caa6 f   monitor.obj
 0001:0005baaf       $L221181                   1005caaf f   monitor.obj
 0001:0005bab8       __ehhandler$?TELAIXERRPT@@YA_NAAVCStringList@@PAD@Z 1005cab8 f   monitor.obj
 0001:0005bad0       $L222230                   1005cad0 f   monitor.obj
 0001:0005badc       $L222231                   1005cadc f   monitor.obj
 0001:0005bae8       $L222232                   1005cae8 f   monitor.obj
 0001:0005baf4       $L222233                   1005caf4 f   monitor.obj
 0001:0005bb00       $L222234                   1005cb00 f   monitor.obj
 0001:0005bb0c       $L222235                   1005cb0c f   monitor.obj
 0001:0005bb18       $L222236                   1005cb18 f   monitor.obj
 0001:0005bb24       $L222237                   1005cb24 f   monitor.obj
 0001:0005bb30       $L222238                   1005cb30 f   monitor.obj
 0001:0005bb3c       $L222239                   1005cb3c f   monitor.obj
 0001:0005bb48       $L222240                   1005cb48 f   monitor.obj
 0001:0005bb54       $L222241                   1005cb54 f   monitor.obj
 0001:0005bb60       $L222242                   1005cb60 f   monitor.obj
 0001:0005bb6c       $L222243                   1005cb6c f   monitor.obj
 0001:0005bb78       $L222245                   1005cb78 f   monitor.obj
 0001:0005bb84       $L222246                   1005cb84 f   monitor.obj
 0001:0005bb90       $L222247                   1005cb90 f   monitor.obj
 0001:0005bb9c       $L222248                   1005cb9c f   monitor.obj
 0001:0005bba8       $L222249                   1005cba8 f   monitor.obj
 0001:0005bbb4       $L222250                   1005cbb4 f   monitor.obj
 0001:0005bbc0       $L222251                   1005cbc0 f   monitor.obj
 0001:0005bbcc       $L222252                   1005cbcc f   monitor.obj
 0001:0005bbd8       $L222253                   1005cbd8 f   monitor.obj
 0001:0005bbe4       $L222254                   1005cbe4 f   monitor.obj
 0001:0005bbf0       $L222255                   1005cbf0 f   monitor.obj
 0001:0005bbfc       $L222256                   1005cbfc f   monitor.obj
 0001:0005bc08       __ehhandler$?TELCPU@@YAHAAVCStringList@@PAD@Z 1005cc08 f   monitor.obj
 0001:0005bc20       $L222654                   1005cc20 f   monitor.obj
 0001:0005bc2c       $L222655                   1005cc2c f   monitor.obj
 0001:0005bc38       $L222656                   1005cc38 f   monitor.obj
 0001:0005bc44       $L222657                   1005cc44 f   monitor.obj
 0001:0005bc50       $L222658                   1005cc50 f   monitor.obj
 0001:0005bc5c       $L222659                   1005cc5c f   monitor.obj
 0001:0005bc68       $L222660                   1005cc68 f   monitor.obj
 0001:0005bc74       $L222661                   1005cc74 f   monitor.obj
 0001:0005bc80       $L222662                   1005cc80 f   monitor.obj
 0001:0005bc8c       $L222663                   1005cc8c f   monitor.obj
 0001:0005bc98       $L222664                   1005cc98 f   monitor.obj
 0001:0005bca4       $L222665                   1005cca4 f   monitor.obj
 0001:0005bcb0       $L222666                   1005ccb0 f   monitor.obj
 0001:0005bcbc       $L222667                   1005ccbc f   monitor.obj
 0001:0005bcc8       $L222669                   1005ccc8 f   monitor.obj
 0001:0005bcd4       $L222670                   1005ccd4 f   monitor.obj
 0001:0005bce0       $L222671                   1005cce0 f   monitor.obj
 0001:0005bcec       $L222672                   1005ccec f   monitor.obj
 0001:0005bcf8       $L222673                   1005ccf8 f   monitor.obj
 0001:0005bd04       $L222674                   1005cd04 f   monitor.obj
 0001:0005bd10       $L222675                   1005cd10 f   monitor.obj
 0001:0005bd1c       $L222676                   1005cd1c f   monitor.obj
 0001:0005bd28       $L222677                   1005cd28 f   monitor.obj
 0001:0005bd34       $L222678                   1005cd34 f   monitor.obj
 0001:0005bd40       $L222679                   1005cd40 f   monitor.obj
 0001:0005bd4c       $L222680                   1005cd4c f   monitor.obj
 0001:0005bd58       __ehhandler$?HP_TELCPU@@YAHAAVCStringList@@PAD@Z 1005cd58 f   monitor.obj
 0001:0005bd70       $L223093                   1005cd70 f   monitor.obj
 0001:0005bd7c       $L223094                   1005cd7c f   monitor.obj
 0001:0005bd88       $L223095                   1005cd88 f   monitor.obj
 0001:0005bd94       $L223096                   1005cd94 f   monitor.obj
 0001:0005bda0       $L223097                   1005cda0 f   monitor.obj
 0001:0005bdac       $L223098                   1005cdac f   monitor.obj
 0001:0005bdb8       $L223099                   1005cdb8 f   monitor.obj
 0001:0005bdc4       $L223100                   1005cdc4 f   monitor.obj
 0001:0005bdd0       $L223101                   1005cdd0 f   monitor.obj
 0001:0005bddc       $L223102                   1005cddc f   monitor.obj
 0001:0005bde8       $L223103                   1005cde8 f   monitor.obj
 0001:0005bdf4       $L223104                   1005cdf4 f   monitor.obj
 0001:0005be00       $L223105                   1005ce00 f   monitor.obj
 0001:0005be0c       $L223106                   1005ce0c f   monitor.obj
 0001:0005be18       $L223108                   1005ce18 f   monitor.obj
 0001:0005be24       $L223109                   1005ce24 f   monitor.obj
 0001:0005be30       $L223110                   1005ce30 f   monitor.obj
 0001:0005be3c       $L223111                   1005ce3c f   monitor.obj
 0001:0005be48       $L223112                   1005ce48 f   monitor.obj
 0001:0005be54       $L223113                   1005ce54 f   monitor.obj
 0001:0005be60       $L223114                   1005ce60 f   monitor.obj
 0001:0005be6c       $L223115                   1005ce6c f   monitor.obj
 0001:0005be78       $L223116                   1005ce78 f   monitor.obj
 0001:0005be84       $L223117                   1005ce84 f   monitor.obj
 0001:0005be90       $L223118                   1005ce90 f   monitor.obj
 0001:0005be9c       $L223119                   1005ce9c f   monitor.obj
 0001:0005bea8       __ehhandler$?TELMEMORY@@YAHAAVCStringList@@PADH@Z 1005cea8 f   monitor.obj
 0001:0005bec0       $L223577                   1005cec0 f   monitor.obj
 0001:0005becc       $L223578                   1005cecc f   monitor.obj
 0001:0005bed8       $L223579                   1005ced8 f   monitor.obj
 0001:0005bee4       $L223580                   1005cee4 f   monitor.obj
 0001:0005bef0       $L223581                   1005cef0 f   monitor.obj
 0001:0005befc       $L223582                   1005cefc f   monitor.obj
 0001:0005bf08       $L223583                   1005cf08 f   monitor.obj
 0001:0005bf14       $L223584                   1005cf14 f   monitor.obj
 0001:0005bf20       $L223585                   1005cf20 f   monitor.obj
 0001:0005bf2c       $L223586                   1005cf2c f   monitor.obj
 0001:0005bf38       $L223587                   1005cf38 f   monitor.obj
 0001:0005bf44       $L223588                   1005cf44 f   monitor.obj
 0001:0005bf50       $L223589                   1005cf50 f   monitor.obj
 0001:0005bf5c       $L223590                   1005cf5c f   monitor.obj
 0001:0005bf68       $L223591                   1005cf68 f   monitor.obj
 0001:0005bf74       $L223593                   1005cf74 f   monitor.obj
 0001:0005bf80       $L223594                   1005cf80 f   monitor.obj
 0001:0005bf8c       $L223595                   1005cf8c f   monitor.obj
 0001:0005bf98       $L223596                   1005cf98 f   monitor.obj
 0001:0005bfa4       $L223597                   1005cfa4 f   monitor.obj
 0001:0005bfb0       $L223598                   1005cfb0 f   monitor.obj
 0001:0005bfbc       $L223599                   1005cfbc f   monitor.obj
 0001:0005bfc8       $L223600                   1005cfc8 f   monitor.obj
 0001:0005bfd4       $L223601                   1005cfd4 f   monitor.obj
 0001:0005bfe0       $L223602                   1005cfe0 f   monitor.obj
 0001:0005bfec       $L223603                   1005cfec f   monitor.obj
 0001:0005bff8       $L223604                   1005cff8 f   monitor.obj
 0001:0005c004       $L223605                   1005d004 f   monitor.obj
 0001:0005c010       __ehhandler$?TELDISK@@YA_NAAVCStringList@@PAD@Z 1005d010 f   monitor.obj
 0001:0005c020       $L224027                   1005d020 f   monitor.obj
 0001:0005c02c       $L224028                   1005d02c f   monitor.obj
 0001:0005c038       $L224029                   1005d038 f   monitor.obj
 0001:0005c044       $L224030                   1005d044 f   monitor.obj
 0001:0005c050       $L224031                   1005d050 f   monitor.obj
 0001:0005c05c       $L224032                   1005d05c f   monitor.obj
 0001:0005c068       $L224033                   1005d068 f   monitor.obj
 0001:0005c074       $L224034                   1005d074 f   monitor.obj
 0001:0005c080       $L224035                   1005d080 f   monitor.obj
 0001:0005c08c       $L224036                   1005d08c f   monitor.obj
 0001:0005c098       $L224037                   1005d098 f   monitor.obj
 0001:0005c0a4       $L224038                   1005d0a4 f   monitor.obj
 0001:0005c0b0       $L224039                   1005d0b0 f   monitor.obj
 0001:0005c0bc       $L224040                   1005d0bc f   monitor.obj
 0001:0005c0c8       $L224041                   1005d0c8 f   monitor.obj
 0001:0005c0d4       $L224043                   1005d0d4 f   monitor.obj
 0001:0005c0e0       $L224044                   1005d0e0 f   monitor.obj
 0001:0005c0ec       $L224045                   1005d0ec f   monitor.obj
 0001:0005c0f8       $L224046                   1005d0f8 f   monitor.obj
 0001:0005c104       $L224047                   1005d104 f   monitor.obj
 0001:0005c110       $L224048                   1005d110 f   monitor.obj
 0001:0005c11c       $L224049                   1005d11c f   monitor.obj
 0001:0005c128       $L224050                   1005d128 f   monitor.obj
 0001:0005c134       $L224051                   1005d134 f   monitor.obj
 0001:0005c140       $L224052                   1005d140 f   monitor.obj
 0001:0005c14c       $L224053                   1005d14c f   monitor.obj
 0001:0005c158       $L224054                   1005d158 f   monitor.obj
 0001:0005c164       $L224055                   1005d164 f   monitor.obj
 0001:0005c170       __ehhandler$?TELSERVICE@@YA_NAAVCStringList@@PAD@Z 1005d170 f   monitor.obj
 0001:0005c180       $L224501                   1005d180 f   monitor.obj
 0001:0005c18c       $L224502                   1005d18c f   monitor.obj
 0001:0005c198       $L224503                   1005d198 f   monitor.obj
 0001:0005c1a4       $L224504                   1005d1a4 f   monitor.obj
 0001:0005c1b0       $L224505                   1005d1b0 f   monitor.obj
 0001:0005c1bc       $L224506                   1005d1bc f   monitor.obj
 0001:0005c1c8       $L224507                   1005d1c8 f   monitor.obj
 0001:0005c1d4       $L224508                   1005d1d4 f   monitor.obj
 0001:0005c1e0       $L224509                   1005d1e0 f   monitor.obj
 0001:0005c1ec       $L224510                   1005d1ec f   monitor.obj
 0001:0005c1f8       $L224511                   1005d1f8 f   monitor.obj
 0001:0005c204       $L224512                   1005d204 f   monitor.obj
 0001:0005c210       $L224513                   1005d210 f   monitor.obj
 0001:0005c21c       $L224514                   1005d21c f   monitor.obj
 0001:0005c228       $L224516                   1005d228 f   monitor.obj
 0001:0005c234       $L224517                   1005d234 f   monitor.obj
 0001:0005c240       $L224518                   1005d240 f   monitor.obj
 0001:0005c24c       $L224519                   1005d24c f   monitor.obj
 0001:0005c258       $L224520                   1005d258 f   monitor.obj
 0001:0005c264       $L224521                   1005d264 f   monitor.obj
 0001:0005c270       $L224522                   1005d270 f   monitor.obj
 0001:0005c27c       $L224523                   1005d27c f   monitor.obj
 0001:0005c288       $L224524                   1005d288 f   monitor.obj
 0001:0005c294       $L224525                   1005d294 f   monitor.obj
 0001:0005c2a0       $L224526                   1005d2a0 f   monitor.obj
 0001:0005c2ac       $L224527                   1005d2ac f   monitor.obj
 0001:0005c2b8       __ehhandler$?TELSERVICES@@YAHAAVCStringList@@PADH@Z 1005d2b8 f   monitor.obj
 0001:0005c2d0       $L226853                   1005d2d0 f   monitor.obj
 0001:0005c2e1       __ehhandler$?_Buynode@?$list@V?$basic_string@DU?$char_traits@D@std@@V?$allocator@D@2@@std@@V?$allocator@V?$basic_string@DU?$char_traits@D@std@@V?$allocator@D@2@@std@@@2@@std@@IAEPAU_Node@?$_List_nod@V?$basic_string@DU?$char_traits@D@std@@V?$allocator@D@2@@std@@V?$allocator@V?$basic_string@DU?$char_traits@D@std@@V?$allocator@D@2@@std@@@2@@2@PAU342@0ABV?$basic_string@DU?$char_traits@D@std@@V?$allocator@D@2@@2@@Z 1005d2e1 f   monitor.obj
 0001:0005c2f0       $L226884                   1005d2f0 f   monitor.obj
 0001:0005c2f9       $L226904                   1005d2f9 f   monitor.obj
 0001:0005c302       __ehhandler$?_Incsize@?$list@V?$basic_string@DU?$char_traits@D@std@@V?$allocator@D@2@@std@@V?$allocator@V?$basic_string@DU?$char_traits@D@std@@V?$allocator@D@2@@std@@@2@@std@@IAEXI@Z 1005d302 f   monitor.obj
 0001:0005c310       $L227653                   1005d310 f   monitor.obj
 0001:0005c31b       $L227654                   1005d31b f   monitor.obj
 0001:0005c327       $L227655                   1005d327 f   monitor.obj
 0001:0005c332       $L227656                   1005d332 f   monitor.obj
 0001:0005c33e       $L227657                   1005d33e f   monitor.obj
 0001:0005c34a       __ehhandler$?MakeDisksReturn@@YAXPADAAH@Z 1005d34a f   monitor.obj
 0001:0005c360       $L228720                   1005d360 f   monitor.obj
 0001:0005c36c       $L228721                   1005d36c f   monitor.obj
 0001:0005c378       $L228722                   1005d378 f   monitor.obj
 0001:0005c384       $L228723                   1005d384 f   monitor.obj
 0001:0005c390       $L228724                   1005d390 f   monitor.obj
 0001:0005c39c       $L228725                   1005d39c f   monitor.obj
 0001:0005c3a8       $L228726                   1005d3a8 f   monitor.obj
 0001:0005c3b4       $L228727                   1005d3b4 f   monitor.obj
 0001:0005c3c0       $L228728                   1005d3c0 f   monitor.obj
 0001:0005c3cc       $L228729                   1005d3cc f   monitor.obj
 0001:0005c3d8       $L228730                   1005d3d8 f   monitor.obj
 0001:0005c3e4       $L228731                   1005d3e4 f   monitor.obj
 0001:0005c3f0       $L228732                   1005d3f0 f   monitor.obj
 0001:0005c3fc       $L228733                   1005d3fc f   monitor.obj
 0001:0005c408       $L228735                   1005d408 f   monitor.obj
 0001:0005c414       $L228736                   1005d414 f   monitor.obj
 0001:0005c420       $L228737                   1005d420 f   monitor.obj
 0001:0005c42c       $L228738                   1005d42c f   monitor.obj
 0001:0005c438       $L228739                   1005d438 f   monitor.obj
 0001:0005c444       $L228740                   1005d444 f   monitor.obj
 0001:0005c450       $L228741                   1005d450 f   monitor.obj
 0001:0005c45c       $L228742                   1005d45c f   monitor.obj
 0001:0005c468       $L228743                   1005d468 f   monitor.obj
 0001:0005c474       $L228744                   1005d474 f   monitor.obj
 0001:0005c480       $L228745                   1005d480 f   monitor.obj
 0001:0005c48c       $L228746                   1005d48c f   monitor.obj
 0001:0005c498       __ehhandler$?TELDISKS@@YA_NAAVCStringList@@PADH@Z 1005d498 f   monitor.obj
 0001:0005c4b0       $L229082                   1005d4b0 f   monitor.obj
 0001:0005c4bc       $L229083                   1005d4bc f   monitor.obj
 0001:0005c4c8       $L229084                   1005d4c8 f   monitor.obj
 0001:0005c4d4       $L229085                   1005d4d4 f   monitor.obj
 0001:0005c4e0       $L229086                   1005d4e0 f   monitor.obj
 0001:0005c4ec       $L229087                   1005d4ec f   monitor.obj
 0001:0005c4f8       $L229088                   1005d4f8 f   monitor.obj
 0001:0005c504       $L229089                   1005d504 f   monitor.obj
 0001:0005c510       $L229090                   1005d510 f   monitor.obj
 0001:0005c51c       $L229092                   1005d51c f   monitor.obj
 0001:0005c528       $L229093                   1005d528 f   monitor.obj
 0001:0005c534       $L229094                   1005d534 f   monitor.obj
 0001:0005c540       $L229095                   1005d540 f   monitor.obj
 0001:0005c54c       $L229096                   1005d54c f   monitor.obj
 0001:0005c558       $L229097                   1005d558 f   monitor.obj
 0001:0005c564       __ehhandler$?SSHDISKS@@YA_NAAVCStringList@@PADH@Z 1005d564 f   monitor.obj
 0001:0005c570       $L133193                   1005d570 f   MQ.obj
 0001:0005c579       $L133194                   1005d579 f   MQ.obj
 0001:0005c582       $L133195                   1005d582 f   MQ.obj
 0001:0005c58b       __ehhandler$?MQ_PARSE@@YAHV?$CStringT@DV?$StrTraitMFC_DLL@DV?$ChTraitsCRT@D@ATL@@@@@ATL@@PAD@Z 1005d58b f   MQ.obj
 0001:0005c5a0       $L133766                   1005d5a0 f   MQ.obj
 0001:0005c5a0       $L133817                   1005d5a0 f   MQ.obj
 0001:0005c5ac       __ehhandler$?MQ_TEL_VALUE@@YA_NPADH000H000000000@Z 1005d5ac f   MQ.obj
 0001:0005c5ac       __ehhandler$?MQ_TEL_STATUS_VALUE@@YA_NPADH000H0000000000@Z 1005d5ac f   MQ.obj
 0001:0005c5c0       $L133573                   1005d5c0 f   NetScreen.obj
 0001:0005c5c0       $L133499                   1005d5c0 f   NetScreen.obj
 0001:0005c5c0       $L133720                   1005d5c0 f   NetScreen.obj
 0001:0005c5c0       $L133868                   1005d5c0 f   NetScreen.obj
 0001:0005c5c0       $L133422                   1005d5c0 f   NetScreen.obj
 0001:0005c5c0       $L133794                   1005d5c0 f   NetScreen.obj
 0001:0005c5c0       $L133647                   1005d5c0 f   NetScreen.obj
 0001:0005c5c9       __ehhandler$?NETSCREENVPN_MONITOR@@YAHPADH0V?$CStringT@DV?$StrTraitMFC_DLL@DV?$ChTraitsCRT@D@ATL@@@@@ATL@@HH00@Z 1005d5c9 f   NetScreen.obj
 0001:0005c5c9       __ehhandler$?NETSCREENSERVICEGROUPMEMBER_MONITOR@@YAHPADH0V?$CStringT@DV?$StrTraitMFC_DLL@DV?$ChTraitsCRT@D@ATL@@@@@ATL@@HH00@Z 1005d5c9 f   NetScreen.obj
 0001:0005c5c9       __ehhandler$?NETSCREENSERVICE_MONITOR@@YAHPADH0V?$CStringT@DV?$StrTraitMFC_DLL@DV?$ChTraitsCRT@D@ATL@@@@@ATL@@HH00@Z 1005d5c9 f   NetScreen.obj
 0001:0005c5c9       __ehhandler$?NETSCREENPACKDROP_MONITOR@@YAHPADH0V?$CStringT@DV?$StrTraitMFC_DLL@DV?$ChTraitsCRT@D@ATL@@@@@ATL@@HH00@Z 1005d5c9 f   NetScreen.obj
 0001:0005c5c9       __ehhandler$?NETSCREENRES_MONITOR@@YAHPADH0V?$CStringT@DV?$StrTraitMFC_DLL@DV?$ChTraitsCRT@D@ATL@@@@@ATL@@HH00@Z 1005d5c9 f   NetScreen.obj
 0001:0005c5c9       __ehhandler$?NETSCREENATTACK_MONITOR@@YAHPADH0V?$CStringT@DV?$StrTraitMFC_DLL@DV?$ChTraitsCRT@D@ATL@@@@@ATL@@HH00@Z 1005d5c9 f   NetScreen.obj
 0001:0005c5c9       __ehhandler$?NETSCREENSERVICEGROUP_MONITOR@@YAHPADH0V?$CStringT@DV?$StrTraitMFC_DLL@DV?$ChTraitsCRT@D@ATL@@@@@ATL@@HH00@Z 1005d5c9 f   NetScreen.obj
 0001:0005c5e0       $L132705                   1005d5e0 f   News.obj
 0001:0005c5eb       $L132706                   1005d5eb f   News.obj
 0001:0005c5f7       __ehhandler$??0CNNTPConnection@@QAE@H@Z 1005d5f7 f   News.obj
 0001:0005c610       $L132733                   1005d610 f   News.obj
 0001:0005c61c       $L132734                   1005d61c f   News.obj
 0001:0005c628       $L132735                   1005d628 f   News.obj
 0001:0005c634       __ehhandler$?CommandResponse@CNNTPConnection@@QAEHAAV?$CStringT@DV?$StrTraitMFC_DLL@DV?$ChTraitsCRT@D@ATL@@@@@ATL@@@Z 1005d634 f   News.obj
 0001:0005c640       $L132785                   1005d640 f   News.obj
 0001:0005c649       $L132786                   1005d649 f   News.obj
 0001:0005c652       __ehhandler$?Disconnect@CNNTPConnection@@QAEHXZ 1005d652 f   News.obj
 0001:0005c660       $L133223                   1005d660 f   News.obj
 0001:0005c669       $L133224                   1005d669 f   News.obj
 0001:0005c672       $L133225                   1005d672 f   News.obj
 0001:0005c67b       __ehhandler$?LoginUser@CNNTPConnection@@QAEHPBD@Z 1005d67b f   News.obj
 0001:0005c690       $L133297                   1005d690 f   News.obj
 0001:0005c699       $L133298                   1005d699 f   News.obj
 0001:0005c6a2       $L133299                   1005d6a2 f   News.obj
 0001:0005c6ab       __ehhandler$?Group@CNNTPConnection@@QAEHPBDAAH@Z 1005d6ab f   News.obj
 0001:0005c6c0       $L133341                   1005d6c0 f   News.obj
 0001:0005c6c9       $L133342                   1005d6c9 f   News.obj
 0001:0005c6d2       $L133343                   1005d6d2 f   News.obj
 0001:0005c6db       $L133344                   1005d6db f   News.obj
 0001:0005c6e4       $L133345                   1005d6e4 f   News.obj
 0001:0005c6ed       __ehhandler$?Connect@CNNTPConnection@@QAEHPBD00H@Z 1005d6ed f   News.obj
 0001:0005c700       $L134734                   1005d700 f   News.obj
 0001:0005c708       $L134735                   1005d708 f   News.obj
 0001:0005c711       __ehhandler$?NEWS_MONITOR@@YAHPADHAAVCStringList@@00H000@Z 1005d711 f   News.obj
 0001:0005c720       $L132486                   1005d720 f   Port.obj
 0001:0005c72c       __ehhandler$?PORT_MONITOR@@YAHPADH00H0H0000@Z 1005d72c f   Port.obj
 0001:0005c740       $L133667                   1005d740 f   Script.obj
 0001:0005c74c       __ehhandler$?TELGETSCRIPT@@YA?AV?$CStringT@DV?$StrTraitMFC_DLL@DV?$ChTraitsCRT@D@ATL@@@@@ATL@@PADH000H0000000@Z 1005d74c f   Script.obj
 0001:0005c760       $L133712                   1005d760 f   Script.obj
 0001:0005c76c       $L133713                   1005d76c f   Script.obj
 0001:0005c778       __ehhandler$?SSHEXESCRIPT@@YAHPADH00000000@Z 1005d778 f   Script.obj
 0001:0005c790       $L133754                   1005d790 f   Script.obj
 0001:0005c79c       $L133755                   1005d79c f   Script.obj
 0001:0005c7a8       __ehhandler$?SSHGETSCRIPT@@YA?AV?$CStringT@DV?$StrTraitMFC_DLL@DV?$ChTraitsCRT@D@ATL@@@@@ATL@@PADH0000@Z 1005d7a8 f   Script.obj
 0001:0005c7c0       $L133878                   1005d7c0 f   Script.obj
 0001:0005c7c9       $L133879                   1005d7c9 f   Script.obj
 0001:0005c7d2       $L133880                   1005d7d2 f   Script.obj
 0001:0005c7db       __ehhandler$?PaseString2@@YAHV?$CStringT@DV?$StrTraitMFC_DLL@DV?$ChTraitsCRT@D@ATL@@@@@ATL@@AAVCStringList@@@Z 1005d7db f   Script.obj
 0001:0005c7f0       $L133929                   1005d7f0 f   Script.obj
 0001:0005c7fc       $L133930                   1005d7fc f   Script.obj
 0001:0005c808       $L133931                   1005d808 f   Script.obj
 0001:0005c813       __ehhandler$?TELEXESCRIPT2@@YAHPADH000H00000000000@Z 1005d813 f   Script.obj
 0001:0005c820       $L132799                   1005d820 f   SnmpUtils.obj
 0001:0005c829       $L132800                   1005d829 f   SnmpUtils.obj
 0001:0005c831       $L132801                   1005d831 f   SnmpUtils.obj
 0001:0005c83a       __ehhandler$?VerifyObject@@YAPAUoid@@PAD@Z 1005d83a f   SnmpUtils.obj
 0001:0005c850       $L132666                   1005d850 f   SSHMonitor.obj
 0001:0005c859       $L132667                   1005d859 f   SSHMonitor.obj
 0001:0005c865       __ehhandler$?executeExeFile@@YAHV?$CStringT@DV?$StrTraitMFC_DLL@DV?$ChTraitsCRT@D@ATL@@@@@ATL@@AAV12@@Z 1005d865 f   SSHMonitor.obj
 0001:0005c870       $L133093                   1005d870 f   SSHMonitor.obj
 0001:0005c87c       $L133094                   1005d87c f   SSHMonitor.obj
 0001:0005c888       __ehhandler$?SSHMonitorValue@@YA_NPADH00H00000@Z 1005d888 f   SSHMonitor.obj
 0001:0005c8a0       $L133139                   1005d8a0 f   SSHMonitor.obj
 0001:0005c8ac       $L133140                   1005d8ac f   SSHMonitor.obj
 0001:0005c8b8       __ehhandler$?SSHUnixPerfMonitorValue@@YAHPADH000000@Z 1005d8b8 f   SSHMonitor.obj
 0001:0005c8d0       $L133173                   1005d8d0 f   SSHMonitor.obj
 0001:0005c8d9       __ehhandler$?ssh_command@@YAHPADH0000AAV?$CStringT@DV?$StrTraitMFC_DLL@DV?$ChTraitsCRT@D@ATL@@@@@ATL@@@Z 1005d8d9 f   SSHMonitor.obj
 0001:0005c8f0       $L132322                   1005d8f0 f   Sybase.obj
 0001:0005c8fb       $L132323                   1005d8fb f   Sybase.obj
 0001:0005c904       $L132324                   1005d904 f   Sybase.obj
 0001:0005c90d       $L132326                   1005d90d f   Sybase.obj
 0001:0005c917       $L132328                   1005d917 f   Sybase.obj
 0001:0005c920       $L132329                   1005d920 f   Sybase.obj
 0001:0005c929       $L132330                   1005d929 f   Sybase.obj
 0001:0005c932       $L132331                   1005d932 f   Sybase.obj
 0001:0005c93b       $L132332                   1005d93b f   Sybase.obj
 0001:0005c944       $L132333                   1005d944 f   Sybase.obj
 0001:0005c94d       $L132334                   1005d94d f   Sybase.obj
 0001:0005c956       $L132335                   1005d956 f   Sybase.obj
 0001:0005c95f       $L132336                   1005d95f f   Sybase.obj
 0001:0005c968       $L132337                   1005d968 f   Sybase.obj
 0001:0005c971       __ehhandler$?SYBASE_MONITOR@@YAHPAD0000@Z 1005d971 f   Sybase.obj
 0001:0005c980       $L134032                   1005d980 f   TelMonitor.obj
 0001:0005c98c       __ehhandler$?telnet_connect@@YAHIPAD000QAY0BAA@DPAUst_gd@@@Z 1005d98c f   TelMonitor.obj
 0001:0005c9a0       $L134163                   1005d9a0 f   TelMonitor.obj
 0001:0005c9ac       $L134164                   1005d9ac f   TelMonitor.obj
 0001:0005c9b8       __ehhandler$?MonitorValue@@YA_NPADH000H000000H000@Z 1005d9b8 f   TelMonitor.obj
 0001:0005c9d0       $L135598                   1005d9d0 f   TelMonitor.obj
 0001:0005c9dc       $L135599                   1005d9dc f   TelMonitor.obj
 0001:0005c9e8       __ehhandler$?MonitorValue_zw@@YAHPADH000H0000000H000@Z 1005d9e8 f   TelMonitor.obj
 0001:0005ca00       $L133477                   1005da00 f   Traffic.obj
 0001:0005ca09       $L133478                   1005da09 f   Traffic.obj
 0001:0005ca12       $L133479                   1005da12 f   Traffic.obj
 0001:0005ca1b       $L133480                   1005da1b f   Traffic.obj
 0001:0005ca24       $L133481                   1005da24 f   Traffic.obj
 0001:0005ca2d       __ehhandler$?WriteLogFile@@YAXV?$CStringT@DV?$StrTraitMFC_DLL@DV?$ChTraitsCRT@D@ATL@@@@@ATL@@0@Z 1005da2d f   Traffic.obj
 0001:0005ca40       $L133530                   1005da40 f   Traffic.obj
 0001:0005ca49       $L133547                   1005da49 f   Traffic.obj
 0001:0005ca55       $L133543                   1005da55 f   Traffic.obj
 0001:0005ca61       $L133544                   1005da61 f   Traffic.obj
 0001:0005ca6d       $L133545                   1005da6d f   Traffic.obj
 0001:0005ca79       __ehhandler$?TRAFFIC_MONITOR@@YAHPADH0HHHV?$CStringT@DV?$StrTraitMFC_DLL@DV?$ChTraitsCRT@D@ATL@@@@@ATL@@00@Z 1005da79 f   Traffic.obj
 0001:0005ca90       $L132944                   1005da90 f   URL.obj
 0001:0005ca99       __ehhandler$?ExecuteFile@@YAXV?$CStringT@DV?$StrTraitMFC_DLL@DV?$ChTraitsCRT@D@ATL@@@@@ATL@@AAV12@HH@Z 1005da99 f   URL.obj
 0001:0005cab0       $L133100                   1005dab0 f   URL.obj
 0001:0005cab9       $L133101                   1005dab9 f   URL.obj
 0001:0005cac2       $L133102                   1005dac2 f   URL.obj
 0001:0005cacb       $L133103                   1005dacb f   URL.obj
 0001:0005cad4       $L133104                   1005dad4 f   URL.obj
 0001:0005cadd       $L133105                   1005dadd f   URL.obj
 0001:0005cae6       $L133106                   1005dae6 f   URL.obj
 0001:0005caef       $L133107                   1005daef f   URL.obj
 0001:0005caf8       $L133108                   1005daf8 f   URL.obj
 0001:0005cb01       $L133109                   1005db01 f   URL.obj
 0001:0005cb0a       $L133110                   1005db0a f   URL.obj
 0001:0005cb13       $L133111                   1005db13 f   URL.obj
 0001:0005cb1c       $L133112                   1005db1c f   URL.obj
 0001:0005cb25       $L133113                   1005db25 f   URL.obj
 0001:0005cb2e       $L133114                   1005db2e f   URL.obj
 0001:0005cb37       $L133115                   1005db37 f   URL.obj
 0001:0005cb40       $L133116                   1005db40 f   URL.obj
 0001:0005cb49       $L133117                   1005db49 f   URL.obj
 0001:0005cb52       $L133118                   1005db52 f   URL.obj
 0001:0005cb5b       $L133119                   1005db5b f   URL.obj
 0001:0005cb64       $L133120                   1005db64 f   URL.obj
 0001:0005cb6d       $L133121                   1005db6d f   URL.obj
 0001:0005cb76       $L133122                   1005db76 f   URL.obj
 0001:0005cb7f       $L133123                   1005db7f f   URL.obj
 0001:0005cb88       $L133124                   1005db88 f   URL.obj
 0001:0005cb91       $L133125                   1005db91 f   URL.obj
 0001:0005cb9a       $L133126                   1005db9a f   URL.obj
 0001:0005cba3       $L133127                   1005dba3 f   URL.obj
 0001:0005cbac       $L133128                   1005dbac f   URL.obj
 0001:0005cbb5       $L133129                   1005dbb5 f   URL.obj
 0001:0005cbbe       $L133130                   1005dbbe f   URL.obj
 0001:0005cbc7       $L133131                   1005dbc7 f   URL.obj
 0001:0005cbd0       $L133132                   1005dbd0 f   URL.obj
 0001:0005cbd9       $L133133                   1005dbd9 f   URL.obj
 0001:0005cbe2       $L133134                   1005dbe2 f   URL.obj
 0001:0005cbeb       $L133135                   1005dbeb f   URL.obj
 0001:0005cbf4       $L133136                   1005dbf4 f   URL.obj
 0001:0005cbfd       $L133137                   1005dbfd f   URL.obj
 0001:0005cc06       $L133138                   1005dc06 f   URL.obj
 0001:0005cc0f       $L133139                   1005dc0f f   URL.obj
 0001:0005cc18       $L133140                   1005dc18 f   URL.obj
 0001:0005cc21       $L133141                   1005dc21 f   URL.obj
 0001:0005cc2a       $L133142                   1005dc2a f   URL.obj
 0001:0005cc33       $L133143                   1005dc33 f   URL.obj
 0001:0005cc3c       $L133144                   1005dc3c f   URL.obj
 0001:0005cc45       $L133145                   1005dc45 f   URL.obj
 0001:0005cc4e       $L133146                   1005dc4e f   URL.obj
 0001:0005cc57       $L133147                   1005dc57 f   URL.obj
 0001:0005cc60       $L133148                   1005dc60 f   URL.obj
 0001:0005cc69       $L133149                   1005dc69 f   URL.obj
 0001:0005cc72       $L133150                   1005dc72 f   URL.obj
 0001:0005cc7b       $L133151                   1005dc7b f   URL.obj
 0001:0005cc84       $L133152                   1005dc84 f   URL.obj
 0001:0005cc8d       __ehhandler$?CODE_VALUE@@YAHV?$CStringT@DV?$StrTraitMFC_DLL@DV?$ChTraitsCRT@D@ATL@@@@@ATL@@AAV12@@Z 1005dc8d f   URL.obj
 0001:0005cca0       $L133547                   1005dca0 f   URL.obj
 0001:0005ccac       $L133548                   1005dcac f   URL.obj
 0001:0005ccb8       $L133549                   1005dcb8 f   URL.obj
 0001:0005ccc4       $L133551                   1005dcc4 f   URL.obj
 0001:0005ccd0       __ehhandler$?URL_MONITOR@@YAHPAD00H000H00HH00@Z 1005dcd0 f   URL.obj
 0001:0005cce0       $L133268                   1005dce0 f   Utils.obj
 0001:0005cced       $L133269                   1005dced f   Utils.obj
 0001:0005ccfa       $L133270                   1005dcfa f   Utils.obj
 0001:0005cd06       $L133271                   1005dd06 f   Utils.obj
 0001:0005cd12       $L133273                   1005dd12 f   Utils.obj
 0001:0005cd1e       $L133274                   1005dd1e f   Utils.obj
 0001:0005cd27       $L133275                   1005dd27 f   Utils.obj
 0001:0005cd35       $L133276                   1005dd35 f   Utils.obj
 0001:0005cd41       $L133277                   1005dd41 f   Utils.obj
 0001:0005cd4a       $L133278                   1005dd4a f   Utils.obj
 0001:0005cd56       $L133279                   1005dd56 f   Utils.obj
 0001:0005cd64       $L133280                   1005dd64 f   Utils.obj
 0001:0005cd70       __ehhandler$?GetUrlData@@YAHPADH000H00H0@Z 1005dd70 f   Utils.obj
 0001:0005cd80       $L133403                   1005dd80 f   Utils.obj
 0001:0005cd89       $L133404                   1005dd89 f   Utils.obj
 0001:0005cd92       __ehhandler$?ReturnParser@@YAP6AHPBDHPAD0@ZH@Z 1005dd92 f   Utils.obj
 0001:0005cda0       $L133499                   1005dda0 f   Utils.obj
 0001:0005cda0       $L133450                   1005dda0 f   Utils.obj
 0001:0005cdac       $L133500                   1005ddac f   Utils.obj
 0001:0005cdac       $L133451                   1005ddac f   Utils.obj
 0001:0005cdb8       __ehhandler$?MONITOR_PARSE_zw@@YAHHPAD0000@Z 1005ddb8 f   Utils.obj
 0001:0005cdb8       __ehhandler$?MONITOR_PARSE@@YAHHPAD000@Z 1005ddb8 f   Utils.obj
 0001:0005cdd0       $L134047                   1005ddd0 f   Utils.obj
 0001:0005cdd9       __ehhandler$?WriteLogFile1@@YAXPBD@Z 1005ddd9 f   Utils.obj
 0001:0005cdf0       $L132585                   1005ddf0 f   WebLogic5x.obj
 0001:0005cdf9       __ehhandler$?WEBLOGIC5X_MONITOR@@YAHPADH0V?$CStringT@DV?$StrTraitMFC_DLL@DV?$ChTraitsCRT@D@ATL@@@@@ATL@@HH00@Z 1005ddf9 f   WebLogic5x.obj
 0001:0005ce10       $L132585                   1005de10 f   WebLogic7x.obj
 0001:0005ce19       __ehhandler$?WEBLOGIC7X_MONITOR@@YAHPADH0V?$CStringT@DV?$StrTraitMFC_DLL@DV?$ChTraitsCRT@D@ATL@@@@@ATL@@HH00@Z 1005de19 f   WebLogic7x.obj
 0001:0005ce23       $L185173                   1005de23 f   mfcs71:dllmodul.obj
 0001:0005ce2b       __ehhandler$?AfxWndProcDllStatic@@YGJPAUHWND__@@IIJ@Z 1005de2b f   mfcs71:dllmodul.obj
 0001:0005ce40       _$E1                       1005de40 f   AIXErrpt.obj
 0001:0005ce60       _$E1                       1005de60 f   Apache.obj
 0001:0005ce80       _$E1                       1005de80 f   Bandwidth.obj
 0001:0005cea0       _$E1                       1005dea0 f   Base64.obj
 0001:0005cec0       _$E1                       1005dec0 f   CheckPoint.obj
 0001:0005cee0       _$E1                       1005dee0 f   CiscoCPU.obj
 0001:0005cf00       _$E1                       1005df00 f   CiscoLog.obj
 0001:0005cf20       _$E1                       1005df20 f   Cluster.obj
 0001:0005cf40       _$E1                       1005df40 f   Ctron.obj
 0001:0005cf60       _$E1                       1005df60 f   DB.obj
 0001:0005cf80       _$E1                       1005df80 f   DHCP.obj
 0001:0005cfa0       _$E1                       1005dfa0 f   DNS.obj
 0001:0005cfc0       _$E1                       1005dfc0 f   Dynamo.obj
 0001:0005cfe0       _$E1                       1005dfe0 f   F5.obj
 0001:0005d000       _$E1                       1005e000 f   Foundry.obj
 0001:0005d020       _$E1                       1005e020 f   FTP.obj
 0001:0005d040       _$E1                       1005e040 f   funcGeneral.obj
 0001:0005d060       _$E1                       1005e060 f   GTJA.obj
 0001:0005d080       _$E1                       1005e080 f   HttpMonitor.obj
 0001:0005d0a0       _$E1                       1005e0a0 f   IEEvents.obj
 0001:0005d0c0       _$E1                       1005e0c0 f   Interfaces.obj
 0001:0005d0e0       _$E1                       1005e0e0 f   iPlanet.obj
 0001:0005d100       _$E1                       1005e100 f   LDAP.obj
 0001:0005d120       _$E1                       1005e120 f   LogFile.obj
 0001:0005d140       _$E1                       1005e140 f   MIMEMessage.obj
 0001:0005d160       _$E1                       1005e160 f   monitor.obj
 0001:0005d180       _$E4                       1005e180 f   monitor.obj
 0001:0005d1a0       _$E1                       1005e1a0 f   MQ.obj
 0001:0005d1c0       _$E1                       1005e1c0 f   NetScreen.obj
 0001:0005d1e0       _$E1                       1005e1e0 f   News.obj
 0001:0005d200       _$E1                       1005e200 f   Ping.obj
 0001:0005d220       _$E1                       1005e220 f   Port.obj
 0001:0005d240       _$E1                       1005e240 f   Radius.obj
 0001:0005d260       _$E1                       1005e260 f   RemotePing.obj
 0001:0005d280       _$E1                       1005e280 f   RloginMonitor.obj
 0001:0005d2a0       _$E1                       1005e2a0 f   Script.obj
 0001:0005d2c0       _$E1                       1005e2c0 f   SilverStream.obj
 0001:0005d2e0       _$E1                       1005e2e0 f   SNMP.obj
 0001:0005d300       _$E1                       1005e300 f   SSHMonitor.obj
 0001:0005d320       _$E1                       1005e320 f   Sybase.obj
 0001:0005d340       _$E1                       1005e340 f   TelMonitor.obj
 0001:0005d360       _$E1                       1005e360 f   Traffic.obj
 0001:0005d380       _$E1                       1005e380 f   TRAP.obj
 0001:0005d3a0       _$E1                       1005e3a0 f   URL.obj
 0001:0005d3c0       _$E4                       1005e3c0 f   URL.obj
 0001:0005d3e0       _$E1                       1005e3e0 f   Utils.obj
 0001:0005d400       _$E1                       1005e400 f   VPN.obj
 0001:0005d420       _$E1                       1005e420 f   WebLogic5x.obj
 0001:0005d440       _$E1                       1005e440 f   WebLogic7x.obj
 0001:0005d45c       _$E5                       1005e45c f   mfcs71:dllmodul.obj
 0001:0005d480       _$E1                       1005e480 f   comsuppw:comutil.obj
 0001:0005d48c       _$E5                       1005e48c f   atls:atlbase.obj
 0001:0005d4b0       _$E2                       1005e4b0 f   AIXErrpt.obj
 0001:0005d4c0       _$E2                       1005e4c0 f   Apache.obj
 0001:0005d4d0       _$E2                       1005e4d0 f   Bandwidth.obj
 0001:0005d4e0       _$E2                       1005e4e0 f   Base64.obj
 0001:0005d4f0       _$E2                       1005e4f0 f   CheckPoint.obj
 0001:0005d500       _$E2                       1005e500 f   CiscoCPU.obj
 0001:0005d510       _$E2                       1005e510 f   CiscoLog.obj
 0001:0005d520       _$E2                       1005e520 f   Cluster.obj
 0001:0005d530       _$E2                       1005e530 f   Ctron.obj
 0001:0005d540       _$E2                       1005e540 f   DB.obj
 0001:0005d550       _$E2                       1005e550 f   DHCP.obj
 0001:0005d560       _$E2                       1005e560 f   DNS.obj
 0001:0005d570       _$E2                       1005e570 f   Dynamo.obj
 0001:0005d580       _$E2                       1005e580 f   F5.obj
 0001:0005d590       _$E2                       1005e590 f   Foundry.obj
 0001:0005d5a0       _$E2                       1005e5a0 f   FTP.obj
 0001:0005d5b0       _$E2                       1005e5b0 f   funcGeneral.obj
 0001:0005d5c0       _$E2                       1005e5c0 f   GTJA.obj
 0001:0005d5d0       _$E2                       1005e5d0 f   HttpMonitor.obj
 0001:0005d5e0       _$E2                       1005e5e0 f   IEEvents.obj
 0001:0005d5f0       _$E2                       1005e5f0 f   Interfaces.obj
 0001:0005d600       _$E2                       1005e600 f   iPlanet.obj
 0001:0005d610       _$E2                       1005e610 f   LDAP.obj
 0001:0005d620       _$E2                       1005e620 f   LogFile.obj
 0001:0005d630       _$E2                       1005e630 f   MIMEMessage.obj
 0001:0005d640       _$E2                       1005e640 f   monitor.obj
 0001:0005d650       _$E5                       1005e650 f   monitor.obj
 0001:0005d660       _$E2                       1005e660 f   MQ.obj
 0001:0005d670       _$E2                       1005e670 f   NetScreen.obj
 0001:0005d680       _$E2                       1005e680 f   News.obj
 0001:0005d690       _$E2                       1005e690 f   Ping.obj
 0001:0005d6a0       _$E2                       1005e6a0 f   Port.obj
 0001:0005d6b0       _$E2                       1005e6b0 f   Radius.obj
 0001:0005d6c0       _$E2                       1005e6c0 f   RemotePing.obj
 0001:0005d6d0       _$E2                       1005e6d0 f   RloginMonitor.obj
 0001:0005d6e0       _$E2                       1005e6e0 f   Script.obj
 0001:0005d6f0       _$E2                       1005e6f0 f   SilverStream.obj
 0001:0005d700       _$E2                       1005e700 f   SNMP.obj
 0001:0005d710       _$E2                       1005e710 f   SSHMonitor.obj
 0001:0005d720       _$E2                       1005e720 f   Sybase.obj
 0001:0005d730       _$E2                       1005e730 f   TelMonitor.obj
 0001:0005d740       _$E2                       1005e740 f   Traffic.obj
 0001:0005d750       _$E2                       1005e750 f   TRAP.obj
 0001:0005d760       _$E2                       1005e760 f   URL.obj
 0001:0005d770       _$E5                       1005e770 f   URL.obj
 0001:0005d780       _$E2                       1005e780 f   Utils.obj
 0001:0005d790       _$E2                       1005e790 f   VPN.obj
 0001:0005d7a0       _$E2                       1005e7a0 f   WebLogic5x.obj
 0001:0005d7b0       _$E2                       1005e7b0 f   WebLogic7x.obj
 0001:0005d7bb       _$E6                       1005e7bb f   mfcs71:dllmodul.obj
 0001:0005d7d0       _$E2                       1005e7d0 f   comsuppw:comutil.obj
 0001:0005d7e6       _$E6                       1005e7e6 f   atls:atlbase.obj
